(lp0
(icrowdsourcing.annotation_types.bbox.bbox
SingleBBox
p1
(dp2
S'a'
p3
NsS'x2'
p4
F0.03198031980319802
sS'num'
p5
I28
sS'w'
p6
F0.5
sS'prob_fp'
p7
F0.029850746268656716
sS'y'
p8
F0.46139128057947243
sS'x'
p9
F0.003690036900368987
sS'y2'
p10
F0.6341396747300807
sS'sigma'
p11
Nsba(icrowdsourcing.annotation_types.bbox.bbox
SingleBBox
p12
(dp13
g3
Nsg4
F0.45018450184501846
sg5
I16
sg6
F0.5
sg7
F0.017057569296375266
sg8
F0.46139128057947243
sg9
F0.2964329643296432
sg10
F0.992756594232609
sg11
Nsba(icrowdsourcing.annotation_types.bbox.bbox
SingleBBox
p14
(dp15
g3
Nsg4
F0.976629766297663
sg5
I16
sg6
F0.5
sg7
F0.017057569296375266
sg8
F0.48981823151564846
sg9
F0.9360393603936039
sg10
F0.7478474784747847
sg11
Nsba(icrowdsourcing.annotation_types.bbox.bbox
SingleBBox
p16
(dp17
g3
Nsg4
F0.99921875
sg5
I11
sg6
F0.5
sg7
F0.011727078891257996
sg8
F0.5335520021866885
sg9
F0.97539975399754
sg10
F0.7762744294109608
sg11
Nsba(icrowdsourcing.annotation_types.bbox.bbox
SingleBBox
p18
(dp19
g3
Nsg4
F0.06027060270602704
sg5
I38
sg6
F0.5
sg7
F0.04051172707889126
sg8
F0.4482711493781605
sg9
F0.011070110701106995
sg10
F0.6669400027333605
sg11
Nsba(icrowdsourcing.annotation_types.bbox.bbox
SingleBBox
p20
(dp21
g3
Nsg4
F0.08610086100861007
sg5
I24
sg6
F0.5
sg7
F0.0255863539445629
sg8
F0.46795134618012846
sg9
F0.04428044280442802
sg10
F0.6603799371327047
sg11
Nsba(icrowdsourcing.annotation_types.bbox.bbox
SingleBBox
p22
(dp23
g3
Nsg4
F0.44772447724477243
sg5
I8
sg6
F0.5
sg7
F0.008528784648187633
sg8
F0.48107147738144046
sg9
F0.3751537515375153
sg10
F0.896542298756321
sg11
Nsba(icrowdsourcing.annotation_types.bbox.bbox
SingleBBox
p24
(dp25
g3
Nsg4
F0.7675276752767528
sg5
I20
sg6
F0.5
sg7
F0.021321961620469083
sg8
F0.4592045920459204
sg9
F0.6555965559655597
sg10
F0.8528085280852808
sg11
Nsba(icrowdsourcing.annotation_types.bbox.bbox
SingleBBox
p26
(dp27
g3
Nsg4
F0.8511685116851169
sg5
I14
sg6
F0.5
sg7
F0.014925373134328358
sg8
F0.41547082137488045
sg9
F0.7638376383763837
sg10
F0.905289052890529
sg11
Nsba(icrowdsourcing.annotation_types.bbox.bbox
SingleBBox
p28
(dp29
g3
Nsg4
F0.4194341943419434
sg5
I22
sg6
F0.5
sg7
F0.023454157782515993
sg8
F0.45920459204592057
sg9
F0.3136531365313654
sg10
F0.8156348230148968
sg11
Nsba(icrowdsourcing.annotation_types.bbox.bbox
SingleBBox
p30
(dp31
g3
Nsg4
F0.04182041820418203
sg5
I33
sg6
F0.5
sg7
F0.035181236673773986
sg8
F0.43077764110974454
sg9
F0.0
sg10
F0.7631542982096488
sg11
Nsba(icrowdsourcing.annotation_types.bbox.bbox
SingleBBox
p32
(dp33
g3
Nsg4
F0.9950799507995081
sg5
I14
sg6
F0.5
sg7
F0.014925373134328358
sg8
F0.46139128057947243
sg9
F0.9175891758917588
sg10
F0.8834221675550089
sg11
Nsba(icrowdsourcing.annotation_types.bbox.bbox
SingleBBox
p34
(dp35
g3
Nsg4
F0.6580565805658057
sg5
I28
sg6
F0.5
sg7
F0.029850746268656716
sg8
F0.4242175755090885
sg9
F0.5338253382533825
sg10
F0.7850211835451688
sg11
Nsba(icrowdsourcing.annotation_types.bbox.bbox
SingleBBox
p36
(dp37
g3
Nsg4
F0.012300123001229995
sg5
I5
sg6
F0.5
sg7
F0.005330490405117271
sg8
F0.4613912805794724
sg9
F0.0
sg10
F0.5532321989886565
sg11
Nsba(icrowdsourcing.annotation_types.bbox.bbox
SingleBBox
p38
(dp39
g3
Nsg4
F0.9606396063960639
sg5
I19
sg6
F0.5
sg7
F0.02025586353944563
sg8
F0.4351510181768485
sg9
F0.8843788437884379
sg10
F0.8484351510181769
sg11
Nsba(icrowdsourcing.annotation_types.bbox.bbox
SingleBBox
p40
(dp41
g3
Nsg4
F0.7650676506765068
sg5
I20
sg6
F0.5
sg7
F0.021321961620469083
sg8
F0.4701380347136805
sg9
F0.6875768757687576
sg10
F0.7194205275386086
sg11
Nsba(icrowdsourcing.annotation_types.bbox.bbox
SingleBBox
p42
(dp43
g3
Nsg4
F0.08610086100861006
sg5
I34
sg6
F0.5
sg7
F0.03624733475479744
sg8
F0.4570179035123684
sg9
F0.013530135301352997
sg10
F0.7675276752767527
sg11
Nsba(icrowdsourcing.annotation_types.bbox.bbox
SingleBBox
p44
(dp45
g3
Nsg4
F0.23616236162361623
sg5
I23
sg6
F0.5
sg7
F0.024520255863539446
sg8
F0.4832581659149925
sg9
F0.15252152521525214
sg10
F0.8047013803471368
sg11
Nsba(icrowdsourcing.annotation_types.bbox.bbox
SingleBBox
p46
(dp47
g3
Nsg4
F0.15990159901599013
sg5
I16
sg6
F0.5
sg7
F0.017057569296375266
sg8
F0.45920459204592057
sg9
F0.061500615006150026
sg10
F0.8637419707530409
sg11
Nsba(icrowdsourcing.annotation_types.bbox.bbox
SingleBBox
p48
(dp49
g3
Nsg4
F0.11070110701107012
sg5
I3
sg6
F0.5
sg7
F0.0031982942430703624
sg8
F0.4460844608446084
sg9
F0.08979089790897908
sg10
F0.5401120677873446
sg11
Nsba(icrowdsourcing.annotation_types.bbox.bbox
SingleBBox
p50
(dp51
g3
Nsg4
F0.8105781057810578
sg5
I17
sg6
F0.5
sg7
F0.01812366737739872
sg8
F0.45483121497881646
sg9
F0.7503075030750306
sg10
F0.7544075440754408
sg11
Nsba(icrowdsourcing.annotation_types.bbox.bbox
SingleBBox
p52
(dp53
g3
Nsg4
F0.908979089790898
sg5
I17
sg6
F0.5
sg7
F0.01812366737739872
sg8
F0.45264452644526454
sg9
F0.8683886838868389
sg10
F0.7237939046057126
sg11
Nsba(icrowdsourcing.annotation_types.bbox.bbox
SingleBBox
p54
(dp55
g3
Nsg4
F0.029520295202952008
sg5
I34
sg6
F0.5
sg7
F0.03624733475479744
sg8
F0.48763154298209643
sg9
F0.0
sg10
F0.7019270192701927
sg11
Nsba(icrowdsourcing.annotation_types.bbox.bbox
SingleBBox
p56
(dp57
g3
Nsg4
F0.21648216482164823
sg5
I10
sg6
F0.5
sg7
F0.010660980810234541
sg8
F0.3739237392373923
sg9
F0.10824108241082406
sg10
F0.9227825611589449
sg11
Nsba(icrowdsourcing.annotation_types.bbox.bbox
SingleBBox
p58
(dp59
g3
Nsg4
F0.3075030750307503
sg5
I13
sg6
F0.5
sg7
F0.013859275053304905
sg8
F0.3957906245729125
sg9
F0.2041820418204182
sg10
F0.8375017083504168
sg11
Nsba(icrowdsourcing.annotation_types.bbox.bbox
SingleBBox
p60
(dp61
g3
Nsg4
F0.20172201722017222
sg5
I30
sg6
F0.5
sg7
F0.031982942430703626
sg8
F0.4570179035123685
sg9
F0.11439114391143912
sg10
F0.7762744294109608
sg11
Nsba(icrowdsourcing.annotation_types.bbox.bbox
SingleBBox
p62
(dp63
g3
Nsg4
F0.947109471094711
sg5
I24
sg6
F0.5
sg7
F0.0255863539445629
sg8
F0.46139128057947243
sg9
F0.9126691266912669
sg10
F0.7019270192701927
sg11
Nsba(icrowdsourcing.annotation_types.bbox.bbox
SingleBBox
p64
(dp65
g3
Nsg4
F0.9926199261992622
sg5
I41
sg6
F0.5
sg7
F0.04371002132196162
sg8
F0.48107147738144046
sg9
F0.9532595325953259
sg10
F0.7106737734044006
sg11
Nsba(icrowdsourcing.annotation_types.bbox.bbox
SingleBBox
p66
(dp67
g3
Nsg4
F0.8597785977859779
sg5
I20
sg6
F0.5
sg7
F0.021321961620469083
sg8
F0.4854448544485445
sg9
F0.7859778597785977
sg10
F0.7609676096760967
sg11
Nsba(icrowdsourcing.annotation_types.bbox.bbox
SingleBBox
p68
(dp69
g3
Nsg4
F0.9163591635916362
sg5
I13
sg6
F0.5
sg7
F0.013859275053304905
sg8
F0.46795134618012846
sg9
F0.8769987699877
sg10
F0.6625666256662568
sg11
Nsba(icrowdsourcing.annotation_types.bbox.bbox
SingleBBox
p70
(dp71
g3
Nsg4
F0.09102091020910205
sg5
I1
sg6
F0.5
sg7
F0.0010660980810234541
sg8
F0.4635779691130245
sg9
F0.07872078720787205
sg10
F0.5138718053847204
sg11
Nsba(icrowdsourcing.annotation_types.bbox.bbox
SingleBBox
p72
(dp73
g3
Nsg4
F0.8892988929889298
sg5
I24
sg6
F0.5
sg7
F0.0255863539445629
sg8
F0.4373377067104005
sg9
F0.800738007380074
sg10
F0.8506218395517288
sg11
Nsba(icrowdsourcing.annotation_types.bbox.bbox
SingleBBox
p74
(dp75
g3
Nsg4
F0.9261992619926198
sg5
I19
sg6
F0.5
sg7
F0.02025586353944563
sg8
F0.4592045920459204
sg9
F0.861008610086101
sg10
F0.8243815771491048
sg11
Nsba(icrowdsourcing.annotation_types.bbox.bbox
SingleBBox
p76
(dp77
g3
Nsg4
F0.2939729397293973
sg5
I1
sg6
F0.5
sg7
F0.0010660980810234541
sg8
F0.4570179035123684
sg9
F0.2742927429274293
sg10
F0.5313653136531366
sg11
Nsba(icrowdsourcing.annotation_types.bbox.bbox
SingleBBox
p78
(dp79
g3
Nsg4
F0.6752767527675276
sg5
I2
sg6
F0.5
sg7
F0.0021321961620469083
sg8
F0.45920459204592046
sg9
F0.6629766297662977
sg10
F0.5138718053847205
sg11
Nsba(icrowdsourcing.annotation_types.bbox.bbox
SingleBBox
p80
(dp81
g3
Nsg4
F0.8191881918819188
sg5
I2
sg6
F0.5
sg7
F0.0021321961620469083
sg8
F0.4198441984419844
sg9
F0.7933579335793357
sg10
F0.5313653136531366
sg11
Nsba(icrowdsourcing.annotation_types.bbox.bbox
SingleBBox
p82
(dp83
g3
Nsg4
F0.040590405904059025
sg5
I9
sg6
F0.5
sg7
F0.009594882729211088
sg8
F0.49200492004920054
sg9
F0.015990159901599
sg10
F0.6122727893945605
sg11
Nsba(icrowdsourcing.annotation_types.bbox.bbox
SingleBBox
p84
(dp85
g3
Nsg4
F0.011070110701107
sg5
I1
sg6
F0.5
sg7
F0.0010660980810234541
sg8
F0.5116851168511686
sg9
F0.0
sg10
F0.5488588219215527
sg11
Nsba(icrowdsourcing.annotation_types.bbox.bbox
SingleBBox
p86
(dp87
g3
Nsg4
F0.1156211562115621
sg5
I1
sg6
F0.5
sg7
F0.0010660980810234541
sg8
F0.4460844608446084
sg9
F0.10701107011070107
sg10
F0.5160584939182725
sg11
Nsba(icrowdsourcing.annotation_types.bbox.bbox
SingleBBox
p88
(dp89
g3
Nsg4
F0.09963099630996308
sg5
I2
sg6
F0.5
sg7
F0.0021321961620469083
sg8
F0.45045783791171246
sg9
F0.08856088560885607
sg10
F0.5204318709853765
sg11
Nsba(icrowdsourcing.annotation_types.bbox.bbox
SingleBBox
p90
(dp91
g3
Nsg4
F0.4809348093480935
sg5
I1
sg6
F0.5
sg7
F0.0010660980810234541
sg8
F0.4504578379117125
sg9
F0.4624846248462484
sg10
F0.5335520021866885
sg11
Nsba(icrowdsourcing.annotation_types.bbox.bbox
SingleBBox
p92
(dp93
g3
Nsg4
F0.8093480934809347
sg5
I1
sg6
F0.5
sg7
F0.0010660980810234541
sg8
F0.45920459204592057
sg9
F0.7982779827798276
sg10
F0.5116851168511686
sg11
Nsba(icrowdsourcing.annotation_types.bbox.bbox
SingleBBox
p94
(dp95
g3
Nsg4
F0.16605166051660514
sg5
I1
sg6
F0.5
sg7
F0.0010660980810234541
sg8
F0.4657646576465765
sg9
F0.15498154981549814
sg10
F0.5007516741834085
sg11
Nsba(icrowdsourcing.annotation_types.bbox.bbox
SingleBBox
p96
(dp97
g3
Nsg4
F0.26322263222632225
sg5
I16
sg6
F0.5
sg7
F0.017057569296375266
sg8
F0.4635779691130245
sg9
F0.2078720787207872
sg10
F0.7544075440754408
sg11
Nsba(icrowdsourcing.annotation_types.bbox.bbox
SingleBBox
p98
(dp99
g3
Nsg4
F0.6531365313653137
sg5
I17
sg6
F0.5
sg7
F0.01812366737739872
sg8
F0.4723247232472324
sg9
F0.5904059040590406
sg10
F0.7959546262129288
sg11
Nsba(icrowdsourcing.annotation_types.bbox.bbox
SingleBBox
p100
(dp101
g3
Nsg4
F0.1131611316113161
sg5
I15
sg6
F0.5
sg7
F0.015991471215351813
sg8
F0.48107147738144046
sg9
F0.07872078720787205
sg10
F0.6844335110017766
sg11
Nsba(icrowdsourcing.annotation_types.bbox.bbox
SingleBBox
p102
(dp103
g3
Nsg4
F0.6998769987699877
sg5
I10
sg6
F0.5
sg7
F0.010660980810234541
sg8
F0.3848571819051524
sg9
F0.5990159901599016
sg10
F0.9337160038267049
sg11
Nsba(icrowdsourcing.annotation_types.bbox.bbox
SingleBBox
p104
(dp105
g3
Nsg4
F0.16851168511685116
sg5
I24
sg6
F0.5
sg7
F0.0255863539445629
sg8
F0.4264042640426404
sg9
F0.08610086100861007
sg10
F0.7653409867432008
sg11
Nsba(icrowdsourcing.annotation_types.bbox.bbox
SingleBBox
p106
(dp107
g3
Nsg4
F0.6150061500615006
sg5
I14
sg6
F0.5
sg7
F0.014925373134328358
sg8
F0.45045783791171234
sg9
F0.5498154981549815
sg10
F0.7500341670083368
sg11
Nsba(icrowdsourcing.annotation_types.bbox.bbox
SingleBBox
p108
(dp109
g3
Nsg4
F0.4206642066420664
sg5
I4
sg6
F0.5
sg7
F0.0042643923240938165
sg8
F0.4701380347136805
sg9
F0.37023370233702335
sg10
F0.7106737734044006
sg11
Nsba(icrowdsourcing.annotation_types.bbox.bbox
SingleBBox
p110
(dp111
g3
Nsg4
F0.6961869618696187
sg5
I11
sg6
F0.5
sg7
F0.011727078891257996
sg8
F0.46139128057947243
sg9
F0.6273062730627307
sg10
F0.7281672816728167
sg11
Nsba(icrowdsourcing.annotation_types.bbox.bbox
SingleBBox
p112
(dp113
g3
Nsg4
F0.37146371463714634
sg5
I22
sg6
F0.5
sg7
F0.023454157782515993
sg8
F0.4635779691130245
sg9
F0.29274292742927427
sg10
F0.7347273472734726
sg11
Nsba(icrowdsourcing.annotation_types.bbox.bbox
SingleBBox
p114
(dp115
g3
Nsg4
F0.09348093480934808
sg5
I1
sg6
F0.5
sg7
F0.0010660980810234541
sg8
F0.47451141178078443
sg9
F0.08979089790897907
sg10
F0.5007516741834084
sg11
Nsba(icrowdsourcing.annotation_types.bbox.bbox
SingleBBox
p116
(dp117
g3
Nsg4
F0.1008610086100861
sg5
I1
sg6
F0.5
sg7
F0.0010660980810234541
sg8
F0.4701380347136805
sg9
F0.09471094710947107
sg10
F0.4985649856498565
sg11
Nsba(icrowdsourcing.annotation_types.bbox.bbox
SingleBBox
p118
(dp119
g3
Nsg4
F0.5055350553505535
sg5
I11
sg6
F0.5
sg7
F0.011727078891257996
sg8
F0.4504578379117125
sg9
F0.44403444034440354
sg10
F0.7434741014076808
sg11
Nsba(icrowdsourcing.annotation_types.bbox.bbox
SingleBBox
p120
(dp121
g3
Nsg4
F0.99921875
sg5
I32
sg6
F0.5
sg7
F0.03411513859275053
sg8
F0.43077764110974454
sg9
F0.970479704797048
sg10
F0.7325406587399207
sg11
Nsba(icrowdsourcing.annotation_types.bbox.bbox
SingleBBox
p122
(dp123
g3
Nsg4
F0.8081180811808117
sg5
I18
sg6
F0.5
sg7
F0.019189765458422176
sg8
F0.4832581659149925
sg9
F0.7011070110701108
sg10
F0.8156348230148968
sg11
Nsba(icrowdsourcing.annotation_types.bbox.bbox
SingleBBox
p124
(dp125
g3
Nsg4
F0.7822878228782288
sg5
I1
sg6
F0.5
sg7
F0.0010660980810234541
sg8
F0.43733770671040045
sg9
F0.7306273062730627
sg10
F0.6122727893945606
sg11
Nsba(icrowdsourcing.annotation_types.bbox.bbox
SingleBBox
p126
(dp127
g3
Nsg4
F0.9778597785977858
sg5
I15
sg6
F0.5
sg7
F0.015991471215351813
sg8
F0.4723247232472324
sg9
F0.9446494464944649
sg10
F0.6538198715320486
sg11
Nsba(icrowdsourcing.annotation_types.bbox.bbox
SingleBBox
p128
(dp129
g3
Nsg4
F0.99921875
sg5
I1
sg6
F0.5
sg7
F0.0010660980810234541
sg8
F0.7303539702063688
sg9
F0.991389913899139
sg10
F0.7609676096760969
sg11
Nsba(icrowdsourcing.annotation_types.bbox.bbox
SingleBBox
p130
(dp131
g3
Nsg4
F0.5879458794587947
sg5
I6
sg6
F0.5
sg7
F0.006396588486140725
sg8
F0.4395243952439524
sg9
F0.4956949569495695
sg10
F0.9555828891622249
sg11
Nsba(icrowdsourcing.annotation_types.bbox.bbox
SingleBBox
p132
(dp133
g3
Nsg4
F0.99921875
sg5
I19
sg6
F0.5
sg7
F0.02025586353944563
sg8
F0.46795134618012846
sg9
F0.9803198031980319
sg10
F0.6713133798004647
sg11
Nsba(icrowdsourcing.annotation_types.bbox.bbox
SingleBBox
p134
(dp135
g3
Nsg4
F0.009840098400983986
sg5
I9
sg6
F0.5
sg7
F0.009594882729211088
sg8
F0.48981823151564846
sg9
F0.0
sg10
F0.6232062320623206
sg11
Nsba(icrowdsourcing.annotation_types.bbox.bbox
SingleBBox
p136
(dp137
g3
Nsg4
F0.3198031980319803
sg5
I11
sg6
F0.5
sg7
F0.011727078891257996
sg8
F0.4635779691130245
sg9
F0.2619926199261992
sg10
F0.7325406587399205
sg11
Nsba(icrowdsourcing.annotation_types.bbox.bbox
SingleBBox
p138
(dp139
g3
Nsg4
F0.9200492004920049
sg5
I1
sg6
F0.5
sg7
F0.0010660980810234541
sg8
F0.4460844608446084
sg9
F0.8905289052890529
sg10
F0.5510455104551045
sg11
Nsba(icrowdsourcing.annotation_types.bbox.bbox
SingleBBox
p140
(dp141
g3
Nsg4
F0.10824108241082409
sg5
I1
sg6
F0.5
sg7
F0.0010660980810234541
sg8
F0.4482711493781605
sg9
F0.1008610086100861
sg10
F0.47888478884788854
sg11
Nsba(icrowdsourcing.annotation_types.bbox.bbox
SingleBBox
p142
(dp143
g3
Nsg4
F0.16236162361623613
sg5
I1
sg6
F0.5
sg7
F0.0010660980810234541
sg8
F0.42203088697553637
sg9
F0.13899138991389912
sg10
F0.5488588219215526
sg11
Nsba(icrowdsourcing.annotation_types.bbox.bbox
SingleBBox
p144
(dp145
g3
Nsg4
F0.17712177121771217
sg5
I1
sg6
F0.5
sg7
F0.0010660980810234541
sg8
F0.4264042640426404
sg9
F0.15867158671586715
sg10
F0.5269919365860326
sg11
Nsba(icrowdsourcing.annotation_types.bbox.bbox
SingleBBox
p146
(dp147
g3
Nsg4
F0.6063960639606396
sg5
I13
sg6
F0.5
sg7
F0.013859275053304905
sg8
F0.4657646576465764
sg9
F0.5079950799507994
sg10
F0.7456607899412326
sg11
Nsba(icrowdsourcing.annotation_types.bbox.bbox
SingleBBox
p148
(dp149
g3
Nsg4
F0.10701107011070107
sg5
I24
sg6
F0.5
sg7
F0.0255863539445629
sg8
F0.44389777231105654
sg9
F0.05289052890528902
sg10
F0.6647533141998087
sg11
Nsba(icrowdsourcing.annotation_types.bbox.bbox
SingleBBox
p150
(dp151
g3
Nsg4
F0.8056580565805659
sg5
I1
sg6
F0.5
sg7
F0.0010660980810234541
sg8
F0.4132841328413284
sg9
F0.7712177121771218
sg10
F0.5313653136531366
sg11
Nsba(icrowdsourcing.annotation_types.bbox.bbox
SingleBBox
p152
(dp153
g3
Nsg4
F0.9397293972939732
sg5
I21
sg6
F0.5
sg7
F0.022388059701492536
sg8
F0.44389777231105637
sg9
F0.8831488314883149
sg10
F0.7150471504715047
sg11
Nsba(icrowdsourcing.annotation_types.bbox.bbox
SingleBBox
p154
(dp155
g3
Nsg4
F0.061500615006150026
sg5
I1
sg6
F0.5
sg7
F0.0010660980810234541
sg8
F0.5029383627169605
sg9
F0.05658056580565805
sg10
F0.5422987563208964
sg11
Nsba(icrowdsourcing.annotation_types.bbox.bbox
SingleBBox
p156
(dp157
g3
Nsg4
F0.07011070110701105
sg5
I1
sg6
F0.5
sg7
F0.0010660980810234541
sg8
F0.4985649856498565
sg9
F0.061500615006150026
sg10
F0.5357386907202405
sg11
Nsba(icrowdsourcing.annotation_types.bbox.bbox
SingleBBox
p158
(dp159
g3
Nsg4
F0.08241082410824105
sg5
I1
sg6
F0.5
sg7
F0.0010660980810234541
sg8
F0.4832581659149925
sg9
F0.07257072570725705
sg10
F0.5641656416564165
sg11
Nsba(icrowdsourcing.annotation_types.bbox.bbox
SingleBBox
p160
(dp161
g3
Nsg4
F0.99921875
sg5
I1
sg6
F0.5
sg7
F0.0010660980810234541
sg8
F0.4963782971163045
sg9
F0.9950799507995078
sg10
F0.5466721333880006
sg11
Nsba(icrowdsourcing.annotation_types.bbox.bbox
SingleBBox
p162
(dp163
g3
Nsg4
F0.35301353013530135
sg5
I19
sg6
F0.5
sg7
F0.02025586353944563
sg8
F0.43077764110974454
sg9
F0.23370233702337018
sg10
F0.8178215115484488
sg11
Nsba(icrowdsourcing.annotation_types.bbox.bbox
SingleBBox
p164
(dp165
g3
Nsg4
F0.5522755227552276
sg5
I9
sg6
F0.5
sg7
F0.009594882729211088
sg8
F0.46795134618012846
sg9
F0.4772447724477244
sg10
F0.8221948886155528
sg11
Nsba(icrowdsourcing.annotation_types.bbox.bbox
SingleBBox
p166
(dp167
g3
Nsg4
F0.99921875
sg5
I5
sg6
F0.5
sg7
F0.005330490405117271
sg8
F0.5226185595189287
sg9
F0.9889298892988929
sg10
F0.6472598059313928
sg11
Nsba(icrowdsourcing.annotation_types.bbox.bbox
SingleBBox
p168
(dp169
g3
Nsg4
F0.16482164821648215
sg5
I12
sg6
F0.5
sg7
F0.01279317697228145
sg8
F0.4701380347136805
sg9
F0.1193111931119311
sg10
F0.6844335110017766
sg11
Nsba(icrowdsourcing.annotation_types.bbox.bbox
SingleBBox
p170
(dp171
g3
Nsg4
F0.9729397293972939
sg5
I9
sg6
F0.5
sg7
F0.009594882729211088
sg8
F0.5291786251195845
sg9
F0.91389913899139
sg10
F0.6953669536695366
sg11
Nsba(icrowdsourcing.annotation_types.bbox.bbox
SingleBBox
p172
(dp173
g3
Nsg4
F0.8794587945879456
sg5
I19
sg6
F0.5
sg7
F0.02025586353944563
sg8
F0.4482711493781605
sg9
F0.8253382533825337
sg10
F0.7565942326089927
sg11
Nsba(icrowdsourcing.annotation_types.bbox.bbox
SingleBBox
p174
(dp175
g3
Nsg4
F0.48708487084870844
sg5
I17
sg6
F0.5
sg7
F0.01812366737739872
sg8
F0.44389777231105654
sg9
F0.33948339483394835
sg10
F0.8899822331556649
sg11
Nsba(icrowdsourcing.annotation_types.bbox.bbox
SingleBBox
p176
(dp177
g3
Nsg4
F0.06642066420664205
sg5
I1
sg6
F0.5
sg7
F0.0010660980810234541
sg8
F0.46795134618012846
sg9
F0.05289052890528902
sg10
F0.5138718053847205
sg11
Nsba(icrowdsourcing.annotation_types.bbox.bbox
SingleBBox
p178
(dp179
g3
Nsg4
F0.39606396063960636
sg5
I22
sg6
F0.5
sg7
F0.023454157782515993
sg8
F0.4198441984419844
sg9
F0.2644526445264453
sg10
F0.8637419707530409
sg11
Nsba(icrowdsourcing.annotation_types.bbox.bbox
SingleBBox
p180
(dp181
g3
Nsg4
F0.3517835178351783
sg5
I13
sg6
F0.5
sg7
F0.013859275053304905
sg8
F0.4985649856498565
sg9
F0.27183271832718325
sg10
F0.7150471504715047
sg11
Nsba(icrowdsourcing.annotation_types.bbox.bbox
SingleBBox
p182
(dp183
g3
Nsg4
F0.4022140221402214
sg5
I14
sg6
F0.5
sg7
F0.014925373134328358
sg8
F0.4198441984419844
sg9
F0.3259532595325953
sg10
F0.7237939046057128
sg11
Nsba(icrowdsourcing.annotation_types.bbox.bbox
SingleBBox
p184
(dp185
g3
Nsg4
F0.2041820418204182
sg5
I16
sg6
F0.5
sg7
F0.017057569296375266
sg8
F0.46139128057947243
sg9
F0.15990159901599013
sg10
F0.7041137078037448
sg11
Nsba(icrowdsourcing.annotation_types.bbox.bbox
SingleBBox
p186
(dp187
g3
Nsg4
F0.4095940959409594
sg5
I1
sg6
F0.5
sg7
F0.0010660980810234541
sg8
F0.47451141178078443
sg9
F0.39606396063960647
sg10
F0.5313653136531366
sg11
Nsba(icrowdsourcing.annotation_types.bbox.bbox
SingleBBox
p188
(dp189
g3
Nsg4
F0.018450184501845
sg5
I1
sg6
F0.5
sg7
F0.0010660980810234541
sg8
F0.5138718053847204
sg9
F0.017220172201722006
sg10
F0.5444854448544485
sg11
Nsba(icrowdsourcing.annotation_types.bbox.bbox
SingleBBox
p190
(dp191
g3
Nsg4
F0.029520295202952008
sg5
I1
sg6
F0.5
sg7
F0.0010660980810234541
sg8
F0.5116851168511686
sg9
F0.022140221402214007
sg10
F0.5422987563208966
sg11
Nsba(icrowdsourcing.annotation_types.bbox.bbox
SingleBBox
p192
(dp193
g3
Nsg4
F0.03936039360393602
sg5
I1
sg6
F0.5
sg7
F0.0010660980810234541
sg8
F0.5094984283176165
sg9
F0.03198031980319802
sg10
F0.5422987563208966
sg11
Nsba(icrowdsourcing.annotation_types.bbox.bbox
SingleBBox
p194
(dp195
g3
Nsg4
F0.07011070110701105
sg5
I1
sg6
F0.5
sg7
F0.0010660980810234541
sg8
F0.4832581659149925
sg9
F0.04920049200492003
sg10
F0.5794724613912805
sg11
Nsba(icrowdsourcing.annotation_types.bbox.bbox
SingleBBox
p196
(dp197
g3
Nsg4
F0.984009840098401
sg5
I1
sg6
F0.5
sg7
F0.0010660980810234541
sg8
F0.4920049200492004
sg9
F0.971709717097171
sg10
F0.5379253792537925
sg11
Nsba(icrowdsourcing.annotation_types.bbox.bbox
SingleBBox
p198
(dp199
g3
Nsg4
F0.6322263222632226
sg5
I10
sg6
F0.5
sg7
F0.010660980810234541
sg8
F0.47888478884788854
sg9
F0.5793357933579336
sg10
F0.7544075440754408
sg11
Nsba(icrowdsourcing.annotation_types.bbox.bbox
SingleBBox
p200
(dp201
g3
Nsg4
F0.5916359163591636
sg5
I3
sg6
F0.5
sg7
F0.0031982942430703624
sg8
F0.42859095257619245
sg9
F0.5461254612546125
sg10
F0.6735000683340167
sg11
Nsba(icrowdsourcing.annotation_types.bbox.bbox
SingleBBox
p202
(dp203
g3
Nsg4
F0.27552275522755226
sg5
I7
sg6
F0.5
sg7
F0.007462686567164179
sg8
F0.45483121497881646
sg9
F0.2189421894218942
sg10
F0.6888068880688806
sg11
Nsba(icrowdsourcing.annotation_types.bbox.bbox
SingleBBox
p204
(dp205
g3
Nsg4
F0.7084870848708487
sg5
I3
sg6
F0.5
sg7
F0.0031982942430703624
sg8
F0.43733770671040045
sg9
F0.6740467404674046
sg10
F0.5422987563208965
sg11
Nsba(icrowdsourcing.annotation_types.bbox.bbox
SingleBBox
p206
(dp207
g3
Nsg4
F0.9569495694956949
sg5
I14
sg6
F0.5
sg7
F0.014925373134328358
sg8
F0.48981823151564846
sg9
F0.9225092250922508
sg10
F0.6909935766024327
sg11
Nsba(icrowdsourcing.annotation_types.bbox.bbox
SingleBBox
p208
(dp209
g3
Nsg4
F0.15867158671586715
sg5
I3
sg6
F0.5
sg7
F0.0031982942430703624
sg8
F0.44171108377750445
sg9
F0.12177121771217707
sg10
F0.5816591499248326
sg11
Nsba(icrowdsourcing.annotation_types.bbox.bbox
SingleBBox
p210
(dp211
g3
Nsg4
F0.017220172201722006
sg5
I9
sg6
F0.5
sg7
F0.009594882729211088
sg8
F0.4854448544485444
sg9
F0.0
sg10
F0.5838458384583844
sg11
Nsba(icrowdsourcing.annotation_types.bbox.bbox
SingleBBox
p212
(dp213
g3
Nsg4
F0.6568265682656826
sg5
I1
sg6
F0.5
sg7
F0.0010660980810234541
sg8
F0.4701380347136805
sg9
F0.6432964329643297
sg10
F0.5269919365860326
sg11
Nsba(icrowdsourcing.annotation_types.bbox.bbox
SingleBBox
p214
(dp215
g3
Nsg4
F0.1328413284132841
sg5
I19
sg6
F0.5
sg7
F0.02025586353944563
sg8
F0.4985649856498565
sg9
F0.06642066420664205
sg10
F0.7325406587399207
sg11
Nsba(icrowdsourcing.annotation_types.bbox.bbox
SingleBBox
p216
(dp217
g3
Nsg4
F0.8806888068880688
sg5
I1
sg6
F0.5
sg7
F0.0010660980810234541
sg8
F0.45483121497881646
sg9
F0.86469864698647
sg10
F0.5248052480524805
sg11
Nsba(icrowdsourcing.annotation_types.bbox.bbox
SingleBBox
p218
(dp219
g3
Nsg4
F0.16974169741697417
sg5
I2
sg6
F0.5
sg7
F0.0021321961620469083
sg8
F0.46795134618012846
sg9
F0.15375153751537515
sg10
F0.5269919365860326
sg11
Nsba(icrowdsourcing.annotation_types.bbox.bbox
SingleBBox
p220
(dp221
g3
Nsg4
F0.47232472324723246
sg5
I11
sg6
F0.5
sg7
F0.011727078891257996
sg8
F0.46139128057947243
sg9
F0.4083640836408364
sg10
F0.7828344950116167
sg11
Nsba(icrowdsourcing.annotation_types.bbox.bbox
SingleBBox
p222
(dp223
g3
Nsg4
F0.6888068880688807
sg5
I8
sg6
F0.5
sg7
F0.008528784648187633
sg8
F0.45483121497881646
sg9
F0.6494464944649446
sg10
F0.6997403307366407
sg11
Nsba(icrowdsourcing.annotation_types.bbox.bbox
SingleBBox
p224
(dp225
g3
Nsg4
F0.1328413284132841
sg5
I2
sg6
F0.5
sg7
F0.0021321961620469083
sg8
F0.46795134618012846
sg9
F0.12177121771217711
sg10
F0.5051250512505125
sg11
Nsba(icrowdsourcing.annotation_types.bbox.bbox
SingleBBox
p226
(dp227
g3
Nsg4
F0.9889298892988929
sg5
I1
sg6
F0.5
sg7
F0.0010660980810234541
sg8
F0.4635779691130245
sg9
F0.9729397293972941
sg10
F0.5335520021866885
sg11
Nsba(icrowdsourcing.annotation_types.bbox.bbox
SingleBBox
p228
(dp229
g3
Nsg4
F0.7220172201722017
sg5
I16
sg6
F0.5
sg7
F0.017057569296375266
sg8
F0.4635779691130245
sg9
F0.6113161131611317
sg10
F0.8112614459477928
sg11
Nsba(icrowdsourcing.annotation_types.bbox.bbox
SingleBBox
p230
(dp231
g3
Nsg4
F0.7281672816728167
sg5
I9
sg6
F0.5
sg7
F0.009594882729211088
sg8
F0.46795134618012846
sg9
F0.6728167281672817
sg10
F0.8375017083504168
sg11
Nsba(icrowdsourcing.annotation_types.bbox.bbox
SingleBBox
p232
(dp233
g3
Nsg4
F0.1266912669126691
sg5
I1
sg6
F0.5
sg7
F0.0010660980810234541
sg8
F0.4832581659149925
sg9
F0.11808118081180807
sg10
F0.5226185595189284
sg11
Nsba(icrowdsourcing.annotation_types.bbox.bbox
SingleBBox
p234
(dp235
g3
Nsg4
F0.020910209102091005
sg5
I1
sg6
F0.5
sg7
F0.0010660980810234541
sg8
F0.4876315429820965
sg9
F0.013530135301352997
sg10
F0.5226185595189285
sg11
Nsba(icrowdsourcing.annotation_types.bbox.bbox
SingleBBox
p236
(dp237
g3
Nsg4
F0.06027060270602704
sg5
I1
sg6
F0.5
sg7
F0.0010660980810234541
sg8
F0.48107147738144046
sg9
F0.05166051660516602
sg10
F0.5160584939182725
sg11
Nsba(icrowdsourcing.annotation_types.bbox.bbox
SingleBBox
p238
(dp239
g3
Nsg4
F0.06888068880688805
sg5
I1
sg6
F0.5
sg7
F0.0010660980810234541
sg8
F0.4788847888478884
sg9
F0.056580565805658026
sg10
F0.5248052480524805
sg11
Nsba(icrowdsourcing.annotation_types.bbox.bbox
SingleBBox
p240
(dp241
g3
Nsg4
F0.05781057810578103
sg5
I1
sg6
F0.5
sg7
F0.0010660980810234541
sg8
F0.4438977723110564
sg9
F0.03936039360393602
sg10
F0.5291786251195846
sg11
Nsba(icrowdsourcing.annotation_types.bbox.bbox
SingleBBox
p242
(dp243
g3
Nsg4
F0.14268142681426813
sg5
I1
sg6
F0.5
sg7
F0.0010660980810234541
sg8
F0.4307776411097444
sg9
F0.1193111931119311
sg10
F0.5291786251195846
sg11
Nsba(icrowdsourcing.annotation_types.bbox.bbox
SingleBBox
p244
(dp245
g3
Nsg4
F0.22632226322263221
sg5
I1
sg6
F0.5
sg7
F0.0010660980810234541
sg8
F0.44389777231105654
sg9
F0.21525215252152524
sg10
F0.48107147738144046
sg11
Nsba(icrowdsourcing.annotation_types.bbox.bbox
SingleBBox
p246
(dp247
g3
Nsg4
F0.6752767527675276
sg5
I1
sg6
F0.5
sg7
F0.0010660980810234541
sg8
F0.40453737870712037
sg9
F0.6469864698646987
sg10
F0.5379253792537925
sg11
Nsba(icrowdsourcing.annotation_types.bbox.bbox
SingleBBox
p248
(dp249
g3
Nsg4
F0.7576875768757688
sg5
I1
sg6
F0.5
sg7
F0.0010660980810234541
sg8
F0.40672406724067245
sg9
F0.7257072570725708
sg10
F0.5619789531228646
sg11
Nsba(icrowdsourcing.annotation_types.bbox.bbox
SingleBBox
p250
(dp251
g3
Nsg4
F0.3234932349323493
sg5
I1
sg6
F0.5
sg7
F0.0010660980810234541
sg8
F0.47451141178078443
sg9
F0.3111931119311193
sg10
F0.5160584939182725
sg11
Nsba(icrowdsourcing.annotation_types.bbox.bbox
SingleBBox
p252
(dp253
g3
Nsg4
F0.7392373923739237
sg5
I1
sg6
F0.5
sg7
F0.0010660980810234541
sg8
F0.48107147738144046
sg9
F0.7269372693726937
sg10
F0.5226185595189284
sg11
Nsba(icrowdsourcing.annotation_types.bbox.bbox
SingleBBox
p254
(dp255
g3
Nsg4
F0.7109471094710946
sg5
I13
sg6
F0.5
sg7
F0.013859275053304905
sg8
F0.45264452644526454
sg9
F0.6457564575645757
sg10
F0.870302036353697
sg11
Nsba(icrowdsourcing.annotation_types.bbox.bbox
SingleBBox
p256
(dp257
g3
Nsg4
F0.25584255842558423
sg5
I24
sg6
F0.5
sg7
F0.0255863539445629
sg8
F0.45483121497881646
sg9
F0.1746617466174661
sg10
F0.7719010523438569
sg11
Nsba(icrowdsourcing.annotation_types.bbox.bbox
SingleBBox
p258
(dp259
g3
Nsg4
F0.99921875
sg5
I1
sg6
F0.5
sg7
F0.0010660980810234541
sg8
F0.5838458384583847
sg9
F0.9864698646986471
sg10
F0.6363263632636327
sg11
Nsba(icrowdsourcing.annotation_types.bbox.bbox
SingleBBox
p260
(dp261
g3
Nsg4
F0.1906519065190652
sg5
I3
sg6
F0.5
sg7
F0.0031982942430703624
sg8
F0.4635779691130245
sg9
F0.16605166051660514
sg10
F0.5488588219215527
sg11
Nsba(icrowdsourcing.annotation_types.bbox.bbox
SingleBBox
p262
(dp263
g3
Nsg4
F0.93849938499385
sg5
I1
sg6
F0.5
sg7
F0.0010660980810234541
sg8
F0.45483121497881646
sg9
F0.9249692496924968
sg10
F0.5401120677873446
sg11
Nsba(icrowdsourcing.annotation_types.bbox.bbox
SingleBBox
p264
(dp265
g3
Nsg4
F0.9483394833948339
sg5
I1
sg6
F0.5
sg7
F0.0010660980810234541
sg8
F0.4460844608446084
sg9
F0.932349323493235
sg10
F0.5291786251195845
sg11
Nsba(icrowdsourcing.annotation_types.bbox.bbox
SingleBBox
p266
(dp267
g3
Nsg4
F0.5559655596555965
sg5
I12
sg6
F0.5
sg7
F0.01279317697228145
sg8
F0.49200492004920054
sg9
F0.4182041820418204
sg10
F0.8943556102227689
sg11
Nsba(icrowdsourcing.annotation_types.bbox.bbox
SingleBBox
p268
(dp269
g3
Nsg4
F0.7503075030750308
sg5
I6
sg6
F0.5
sg7
F0.006396588486140725
sg8
F0.5488588219215527
sg9
F0.6629766297662977
sg10
F0.7544075440754408
sg11
Nsba(icrowdsourcing.annotation_types.bbox.bbox
SingleBBox
p270
(dp271
g3
Nsg4
F0.24723247232472323
sg5
I1
sg6
F0.5
sg7
F0.0010660980810234541
sg8
F0.45483121497881646
sg9
F0.23001230012300117
sg10
F0.5466721333880006
sg11
Nsba(icrowdsourcing.annotation_types.bbox.bbox
SingleBBox
p272
(dp273
g3
Nsg4
F0.9052890528905289
sg5
I14
sg6
F0.5
sg7
F0.014925373134328358
sg8
F0.4198441984419844
sg9
F0.8388683886838868
sg10
F0.7565942326089927
sg11
Nsba(icrowdsourcing.annotation_types.bbox.bbox
SingleBBox
p274
(dp275
g3
Nsg4
F0.8142681426814269
sg5
I2
sg6
F0.5
sg7
F0.0021321961620469083
sg8
F0.4766981003143365
sg9
F0.7687576875768759
sg10
F0.6538198715320486
sg11
Nsba(icrowdsourcing.annotation_types.bbox.bbox
SingleBBox
p276
(dp277
g3
Nsg4
F0.10578105781057807
sg5
I1
sg6
F0.5
sg7
F0.0010660980810234541
sg8
F0.4460844608446084
sg9
F0.07872078720787205
sg10
F0.5729123957906246
sg11
Nsba(icrowdsourcing.annotation_types.bbox.bbox
SingleBBox
p278
(dp279
g3
Nsg4
F0.991389913899139
sg5
I1
sg6
F0.5
sg7
F0.0010660980810234541
sg8
F0.4570179035123684
sg9
F0.9655596555965559
sg10
F0.5750990843241766
sg11
Nsba(icrowdsourcing.annotation_types.bbox.bbox
SingleBBox
p280
(dp281
g3
Nsg4
F0.1230012300123001
sg5
I12
sg6
F0.5
sg7
F0.01279317697228145
sg8
F0.42421757550908834
sg9
F0.023370233702337012
sg10
F0.8440617739510727
sg11
Nsba(icrowdsourcing.annotation_types.bbox.bbox
SingleBBox
p282
(dp283
g3
Nsg4
F0.46863468634686356
sg5
I1
sg6
F0.5
sg7
F0.0010660980810234541
sg8
F0.4657646576465764
sg9
F0.4317343173431734
sg10
F0.6778734454011206
sg11
Nsba(icrowdsourcing.annotation_types.bbox.bbox
SingleBBox
p284
(dp285
g3
Nsg4
F0.24108241082410825
sg5
I8
sg6
F0.5
sg7
F0.008528784648187633
sg8
F0.45264452644526443
sg9
F0.19557195571955716
sg10
F0.7369140358070247
sg11
Nsba(icrowdsourcing.annotation_types.bbox.bbox
SingleBBox
p286
(dp287
g3
Nsg4
F0.14391143911439114
sg5
I15
sg6
F0.5
sg7
F0.015991471215351813
sg8
F0.47451141178078443
sg9
F0.0959409594095941
sg10
F0.6888068880688808
sg11
Nsba(icrowdsourcing.annotation_types.bbox.bbox
SingleBBox
p288
(dp289
g3
Nsg4
F0.24723247232472323
sg5
I1
sg6
F0.5
sg7
F0.0010660980810234541
sg8
F0.47888478884788854
sg9
F0.23616236162361623
sg10
F0.5182451824518245
sg11
Nsba(icrowdsourcing.annotation_types.bbox.bbox
SingleBBox
p290
(dp291
g3
Nsg4
F0.6543665436654367
sg5
I1
sg6
F0.5
sg7
F0.0010660980810234541
sg8
F0.4876315429820965
sg9
F0.6408364083640835
sg10
F0.5269919365860325
sg11
Nsba(icrowdsourcing.annotation_types.bbox.bbox
SingleBBox
p292
(dp293
g3
Nsg4
F0.6715867158671587
sg5
I9
sg6
F0.5
sg7
F0.009594882729211088
sg8
F0.41547082137488034
sg9
F0.6113161131611317
sg10
F0.7981413147464808
sg11
Nsba(icrowdsourcing.annotation_types.bbox.bbox
SingleBBox
p294
(dp295
g3
Nsg4
F0.18081180811808117
sg5
I8
sg6
F0.5
sg7
F0.008528784648187633
sg8
F0.4460844608446084
sg9
F0.1328413284132841
sg10
F0.6647533141998087
sg11
Nsba(icrowdsourcing.annotation_types.bbox.bbox
SingleBBox
p296
(dp297
g3
Nsg4
F0.7539975399753998
sg5
I1
sg6
F0.5
sg7
F0.0010660980810234541
sg8
F0.42421757550908834
sg9
F0.7306273062730627
sg10
F0.5248052480524805
sg11
Nsba(icrowdsourcing.annotation_types.bbox.bbox
SingleBBox
p298
(dp299
g3
Nsg4
F0.5977859778597786
sg5
I10
sg6
F0.5
sg7
F0.010660980810234541
sg8
F0.38048380483804844
sg9
F0.44772447724477243
sg10
F0.8221948886155528
sg11
Nsba(icrowdsourcing.annotation_types.bbox.bbox
SingleBBox
p300
(dp301
g3
Nsg4
F0.22632226322263221
sg5
I1
sg6
F0.5
sg7
F0.0010660980810234541
sg8
F0.47888478884788854
sg9
F0.21525215252152524
sg10
F0.5160584939182725
sg11
Nsba(icrowdsourcing.annotation_types.bbox.bbox
SingleBBox
p302
(dp303
g3
Nsg4
F0.018450184501845
sg5
I4
sg6
F0.5
sg7
F0.0042643923240938165
sg8
F0.4963782971163045
sg9
F0.0
sg10
F0.8068880688806889
sg11
Nsba(icrowdsourcing.annotation_types.bbox.bbox
SingleBBox
p304
(dp305
g3
Nsg4
F0.015990159901599
sg5
I1
sg6
F0.5
sg7
F0.0010660980810234541
sg8
F0.6275796091294248
sg9
F0.0012300123001229833
sg10
F0.6931802651359847
sg11
Nsba(icrowdsourcing.annotation_types.bbox.bbox
SingleBBox
p306
(dp307
g3
Nsg4
F0.07749077490774905
sg5
I20
sg6
F0.5
sg7
F0.021321961620469083
sg8
F0.4941916085827526
sg9
F0.03198031980319802
sg10
F0.6866201995353287
sg11
Nsba(icrowdsourcing.annotation_types.bbox.bbox
SingleBBox
p308
(dp309
g3
Nsg4
F0.07380073800738005
sg5
I13
sg6
F0.5
sg7
F0.013859275053304905
sg8
F0.44171108377750445
sg9
F0.03690036900369002
sg10
F0.6341396747300806
sg11
Nsba(icrowdsourcing.annotation_types.bbox.bbox
SingleBBox
p310
(dp311
g3
Nsg4
F0.2952029520295203
sg5
I11
sg6
F0.5
sg7
F0.011727078891257996
sg8
F0.44389777231105637
sg9
F0.2312423124231242
sg10
F0.7259805931392647
sg11
Nsba(icrowdsourcing.annotation_types.bbox.bbox
SingleBBox
p312
(dp313
g3
Nsg4
F0.8290282902829027
sg5
I6
sg6
F0.5
sg7
F0.006396588486140725
sg8
F0.45045783791171234
sg9
F0.7822878228782286
sg10
F0.7369140358070247
sg11
Nsba(icrowdsourcing.annotation_types.bbox.bbox
SingleBBox
p314
(dp315
g3
Nsg4
F0.9753997539975398
sg5
I2
sg6
F0.5
sg7
F0.0021321961620469083
sg8
F0.43077764110974454
sg9
F0.955719557195572
sg10
F0.5248052480524805
sg11
Nsba(icrowdsourcing.annotation_types.bbox.bbox
SingleBBox
p316
(dp317
g3
Nsg4
F0.99921875
sg5
I4
sg6
F0.5
sg7
F0.0042643923240938165
sg8
F0.6078994123274565
sg9
F0.9655596555965559
sg10
F0.8287549542162089
sg11
Nsba(icrowdsourcing.annotation_types.bbox.bbox
SingleBBox
p318
(dp319
g3
Nsg4
F0.9212792127921279
sg5
I7
sg6
F0.5
sg7
F0.007462686567164179
sg8
F0.4570179035123685
sg9
F0.8277982779827798
sg10
F0.9293426267596009
sg11
Nsba(icrowdsourcing.annotation_types.bbox.bbox
SingleBBox
p320
(dp321
g3
Nsg4
F0.99921875
sg5
I2
sg6
F0.5
sg7
F0.0021321961620469083
sg8
F0.4985649856498565
sg9
F0.992619926199262
sg10
F0.7325406587399207
sg11
Nsba(icrowdsourcing.annotation_types.bbox.bbox
SingleBBox
p322
(dp323
g3
Nsg4
F0.8806888068880688
sg5
I6
sg6
F0.5
sg7
F0.006396588486140725
sg8
F0.46139128057947243
sg9
F0.8437884378843791
sg10
F0.6428864288642886
sg11
Nsba(icrowdsourcing.annotation_types.bbox.bbox
SingleBBox
p324
(dp325
g3
Nsg4
F0.7798277982779828
sg5
I9
sg6
F0.5
sg7
F0.009594882729211088
sg8
F0.3892305589722565
sg9
F0.6199261992619925
sg10
F0.9840098400984009
sg11
Nsba(icrowdsourcing.annotation_types.bbox.bbox
SingleBBox
p326
(dp327
g3
Nsg4
F0.5166051660516606
sg5
I1
sg6
F0.5
sg7
F0.0010660980810234541
sg8
F0.4635779691130245
sg9
F0.49692496924969254
sg10
F0.5051250512505125
sg11
Nsba(icrowdsourcing.annotation_types.bbox.bbox
SingleBBox
p328
(dp329
g3
Nsg4
F0.8659286592865929
sg5
I1
sg6
F0.5
sg7
F0.0010660980810234541
sg8
F0.46795134618012846
sg9
F0.853628536285363
sg10
F0.5029383627169605
sg11
Nsba(icrowdsourcing.annotation_types.bbox.bbox
SingleBBox
p330
(dp331
g3
Nsg4
F0.030750307503075013
sg5
I2
sg6
F0.5
sg7
F0.0021321961620469083
sg8
F0.48107147738144046
sg9
F0.020910209102091005
sg10
F0.5226185595189284
sg11
Nsba(icrowdsourcing.annotation_types.bbox.bbox
SingleBBox
p332
(dp333
g3
Nsg4
F0.5313653136531364
sg5
I2
sg6
F0.5
sg7
F0.0021321961620469083
sg8
F0.4307776411097444
sg9
F0.4956949569495695
sg10
F0.5554188875222086
sg11
Nsba(icrowdsourcing.annotation_types.bbox.bbox
SingleBBox
p334
(dp335
g3
Nsg4
F0.05289052890528902
sg5
I2
sg6
F0.5
sg7
F0.0021321961620469083
sg8
F0.48107147738144046
sg9
F0.030750307503075013
sg10
F0.5904059040590407
sg11
Nsba(icrowdsourcing.annotation_types.bbox.bbox
SingleBBox
p336
(dp337
g3
Nsg4
F0.6236162361623616
sg5
I1
sg6
F0.5
sg7
F0.0010660980810234541
sg8
F0.46139128057947243
sg9
F0.6076260762607626
sg10
F0.5094984283176165
sg11
Nsba(icrowdsourcing.annotation_types.bbox.bbox
SingleBBox
p338
(dp339
g3
Nsg4
F0.4624846248462484
sg5
I1
sg6
F0.5
sg7
F0.0010660980810234541
sg8
F0.4657646576465764
sg9
F0.45018450184501846
sg10
F0.5094984283176165
sg11
Nsba(icrowdsourcing.annotation_types.bbox.bbox
SingleBBox
p340
(dp341
g3
Nsg4
F0.25953259532595324
sg5
I1
sg6
F0.5
sg7
F0.0010660980810234541
sg8
F0.44171108377750445
sg9
F0.22263222632226326
sg10
F0.5576055760557607
sg11
Nsba(icrowdsourcing.annotation_types.bbox.bbox
SingleBBox
p342
(dp343
g3
Nsg4
F0.86469864698647
sg5
I11
sg6
F0.5
sg7
F0.011727078891257996
sg8
F0.44171108377750445
sg9
F0.8081180811808117
sg10
F0.7106737734044006
sg11
Nsba(icrowdsourcing.annotation_types.bbox.bbox
SingleBBox
p344
(dp345
g3
Nsg4
F0.3222632226322263
sg5
I2
sg6
F0.5
sg7
F0.0021321961620469083
sg8
F0.4395243952439524
sg9
F0.2952029520295203
sg10
F0.5532321989886566
sg11
Nsba(icrowdsourcing.annotation_types.bbox.bbox
SingleBBox
p346
(dp347
g3
Nsg4
F0.19434194341943414
sg5
I1
sg6
F0.5
sg7
F0.0010660980810234541
sg8
F0.4460844608446084
sg9
F0.18081180811808117
sg10
F0.4985649856498565
sg11
Nsba(icrowdsourcing.annotation_types.bbox.bbox
SingleBBox
p348
(dp349
g3
Nsg4
F0.41082410824108245
sg5
I1
sg6
F0.5
sg7
F0.0010660980810234541
sg8
F0.4395243952439524
sg9
F0.39975399753997537
sg10
F0.4854448544485445
sg11
Nsba(icrowdsourcing.annotation_types.bbox.bbox
SingleBBox
p350
(dp351
g3
Nsg4
F0.9950799507995081
sg5
I2
sg6
F0.5
sg7
F0.0021321961620469083
sg8
F0.43733770671040034
sg9
F0.9778597785977861
sg10
F0.5116851168511686
sg11
Nsba(icrowdsourcing.annotation_types.bbox.bbox
SingleBBox
p352
(dp353
g3
Nsg4
F0.44526445264452646
sg5
I1
sg6
F0.5
sg7
F0.0010660980810234541
sg8
F0.4351510181768485
sg9
F0.4366543665436654
sg10
F0.4592045920459204
sg11
Nsba(icrowdsourcing.annotation_types.bbox.bbox
SingleBBox
p354
(dp355
g3
Nsg4
F0.21033210332103325
sg5
I1
sg6
F0.5
sg7
F0.0010660980810234541
sg8
F0.48107147738144046
sg9
F0.2004920049200492
sg10
F0.5269919365860326
sg11
Nsba(icrowdsourcing.annotation_types.bbox.bbox
SingleBBox
p356
(dp357
g3
Nsg4
F0.862238622386224
sg5
I4
sg6
F0.5
sg7
F0.0042643923240938165
sg8
F0.46139128057947243
sg9
F0.8191881918819188
sg10
F0.6363263632636327
sg11
Nsba(icrowdsourcing.annotation_types.bbox.bbox
SingleBBox
p358
(dp359
g3
Nsg4
F0.33087330873308735
sg5
I1
sg6
F0.5
sg7
F0.0010660980810234541
sg8
F0.4635779691130245
sg9
F0.3210332103321033
sg10
F0.4941916085827526
sg11
Nsba(icrowdsourcing.annotation_types.bbox.bbox
SingleBBox
p360
(dp361
g3
Nsg4
F0.37761377613776137
sg5
I1
sg6
F0.5
sg7
F0.0010660980810234541
sg8
F0.4701380347136805
sg9
F0.3665436654366544
sg10
F0.4941916085827524
sg11
Nsba(icrowdsourcing.annotation_types.bbox.bbox
SingleBBox
p362
(dp363
g3
Nsg4
F0.014760147601476009
sg5
I15
sg6
F0.5
sg7
F0.015991471215351813
sg8
F0.47888478884788854
sg9
F0.0
sg10
F0.6669400027333605
sg11
Nsba(icrowdsourcing.annotation_types.bbox.bbox
SingleBBox
p364
(dp365
g3
Nsg4
F0.998769987699877
sg5
I16
sg6
F0.5
sg7
F0.017057569296375266
sg8
F0.41765750990843237
sg9
F0.9434194341943419
sg10
F0.7806478064780648
sg11
Nsba(icrowdsourcing.annotation_types.bbox.bbox
SingleBBox
p366
(dp367
g3
Nsg4
F0.22386223862238622
sg5
I4
sg6
F0.5
sg7
F0.0042643923240938165
sg8
F0.44389777231105637
sg9
F0.18696186961869615
sg10
F0.6560065600656007
sg11
Nsba(icrowdsourcing.annotation_types.bbox.bbox
SingleBBox
p368
(dp369
g3
Nsg4
F0.4956949569495695
sg5
I9
sg6
F0.5
sg7
F0.009594882729211088
sg8
F0.44171108377750445
sg9
F0.4157441574415744
sg10
F0.9184091840918409
sg11
Nsba(icrowdsourcing.annotation_types.bbox.bbox
SingleBBox
p370
(dp371
g3
Nsg4
F0.968019680196802
sg5
I21
sg6
F0.5
sg7
F0.022388059701492536
sg8
F0.4592045920459204
sg9
F0.906519065190652
sg10
F0.7587809211425448
sg11
Nsba(icrowdsourcing.annotation_types.bbox.bbox
SingleBBox
p372
(dp373
g3
Nsg4
F0.8462484624846247
sg5
I1
sg6
F0.5
sg7
F0.0010660980810234541
sg8
F0.4482711493781605
sg9
F0.8241082410824105
sg10
F0.5488588219215527
sg11
Nsba(icrowdsourcing.annotation_types.bbox.bbox
SingleBBox
p374
(dp375
g3
Nsg4
F0.033210332103321014
sg5
I2
sg6
F0.5
sg7
F0.0021321961620469083
sg8
F0.45920459204592057
sg9
F0.011070110701106995
sg10
F0.5379253792537925
sg11
Nsba(icrowdsourcing.annotation_types.bbox.bbox
SingleBBox
p376
(dp377
g3
Nsg4
F0.04674046740467404
sg5
I3
sg6
F0.5
sg7
F0.0031982942430703624
sg8
F0.4460844608446084
sg9
F0.028290282902829
sg10
F0.5291786251195845
sg11
Nsba(icrowdsourcing.annotation_types.bbox.bbox
SingleBBox
p378
(dp379
g3
Nsg4
F0.943419434194342
sg5
I1
sg6
F0.5
sg7
F0.0010660980810234541
sg8
F0.4635779691130245
sg9
F0.929889298892989
sg10
F0.5226185595189287
sg11
Nsba(icrowdsourcing.annotation_types.bbox.bbox
SingleBBox
p380
(dp381
g3
Nsg4
F0.2177121771217712
sg5
I1
sg6
F0.5
sg7
F0.0010660980810234541
sg8
F0.4635779691130245
sg9
F0.2066420664206642
sg10
F0.5291786251195845
sg11
Nsba(icrowdsourcing.annotation_types.bbox.bbox
SingleBBox
p382
(dp383
g3
Nsg4
F0.03936039360393602
sg5
I1
sg6
F0.5
sg7
F0.0010660980810234541
sg8
F0.45920459204592046
sg9
F0.015990159901599
sg10
F0.5619789531228645
sg11
Nsba(icrowdsourcing.annotation_types.bbox.bbox
SingleBBox
p384
(dp385
g3
Nsg4
F0.48708487084870844
sg5
I2
sg6
F0.5
sg7
F0.0021321961620469083
sg8
F0.40672406724067245
sg9
F0.4514145141451415
sg10
F0.5357386907202406
sg11
Nsba(icrowdsourcing.annotation_types.bbox.bbox
SingleBBox
p386
(dp387
g3
Nsg4
F0.5485854858548586
sg5
I3
sg6
F0.5
sg7
F0.0031982942430703624
sg8
F0.4001640016400164
sg9
F0.49815498154981547
sg10
F0.5685390187235206
sg11
Nsba(icrowdsourcing.annotation_types.bbox.bbox
SingleBBox
p388
(dp389
g3
Nsg4
F0.27675276752767525
sg5
I1
sg6
F0.5
sg7
F0.0010660980810234541
sg8
F0.4198441984419844
sg9
F0.23370233702337023
sg10
F0.5882192155254886
sg11
Nsba(icrowdsourcing.annotation_types.bbox.bbox
SingleBBox
p390
(dp391
g3
Nsg4
F0.99921875
sg5
I24
sg6
F0.5
sg7
F0.0255863539445629
sg8
F0.46576465764657654
sg9
F0.961869618696187
sg10
F0.6581932485991526
sg11
Nsba(icrowdsourcing.annotation_types.bbox.bbox
SingleBBox
p392
(dp393
g3
Nsg4
F0.8954489544895449
sg5
I1
sg6
F0.5
sg7
F0.0010660980810234541
sg8
F0.5882192155254886
sg9
F0.832718327183272
sg10
F0.7522208555418887
sg11
Nsba(icrowdsourcing.annotation_types.bbox.bbox
SingleBBox
p394
(dp395
g3
Nsg4
F0.22509225092250923
sg5
I1
sg6
F0.5
sg7
F0.0010660980810234541
sg8
F0.45920459204592046
sg9
F0.2041820418204182
sg10
F0.5269919365860325
sg11
Nsba(icrowdsourcing.annotation_types.bbox.bbox
SingleBBox
p396
(dp397
g3
Nsg4
F0.059040590405904037
sg5
I1
sg6
F0.5
sg7
F0.0010660980810234541
sg8
F0.46576465764657654
sg9
F0.045510455104551026
sg10
F0.5160584939182725
sg11
Nsba(icrowdsourcing.annotation_types.bbox.bbox
SingleBBox
p398
(dp399
g3
Nsg4
F0.41451414514145135
sg5
I1
sg6
F0.5
sg7
F0.0010660980810234541
sg8
F0.4570179035123685
sg9
F0.3960639606396064
sg10
F0.5094984283176165
sg11
Nsba(icrowdsourcing.annotation_types.bbox.bbox
SingleBBox
p400
(dp401
g3
Nsg4
F0.07749077490774905
sg5
I3
sg6
F0.5
sg7
F0.0031982942430703624
sg8
F0.44389777231105654
sg9
F0.04797047970479702
sg10
F0.5663523301899686
sg11
Nsba(icrowdsourcing.annotation_types.bbox.bbox
SingleBBox
p402
(dp403
g3
Nsg4
F0.982779827798278
sg5
I1
sg6
F0.5
sg7
F0.0010660980810234541
sg8
F0.4592045920459204
sg9
F0.9729397293972937
sg10
F0.5182451824518245
sg11
Nsba(icrowdsourcing.annotation_types.bbox.bbox
SingleBBox
p404
(dp405
g3
Nsg4
F0.18204182041820416
sg5
I1
sg6
F0.5
sg7
F0.0010660980810234541
sg8
F0.47232472324723257
sg9
F0.17097170971709716
sg10
F0.5116851168511686
sg11
Nsba(icrowdsourcing.annotation_types.bbox.bbox
SingleBBox
p406
(dp407
g3
Nsg4
F0.5535055350553504
sg5
I1
sg6
F0.5
sg7
F0.0010660980810234541
sg8
F0.4766981003143365
sg9
F0.5350553505535055
sg10
F0.5226185595189287
sg11
Nsba(icrowdsourcing.annotation_types.bbox.bbox
SingleBBox
p408
(dp409
g3
Nsg4
F0.5399753997539976
sg5
I11
sg6
F0.5
sg7
F0.011727078891257996
sg8
F0.4001640016400164
sg9
F0.3677736777367774
sg10
F0.8506218395517288
sg11
Nsba(icrowdsourcing.annotation_types.bbox.bbox
SingleBBox
p410
(dp411
g3
Nsg4
F0.33333333333333337
sg5
I2
sg6
F0.5
sg7
F0.0021321961620469083
sg8
F0.43733770671040034
sg9
F0.30012300123001234
sg10
F0.5947792811261446
sg11
Nsba(icrowdsourcing.annotation_types.bbox.bbox
SingleBBox
p412
(dp413
g3
Nsg4
F0.44157441574415746
sg5
I1
sg6
F0.5
sg7
F0.0010660980810234541
sg8
F0.42203088697553637
sg9
F0.39483394833948343
sg10
F0.6057127237939046
sg11
Nsba(icrowdsourcing.annotation_types.bbox.bbox
SingleBBox
p414
(dp415
g3
Nsg4
F0.05412054120541203
sg5
I12
sg6
F0.5
sg7
F0.01279317697228145
sg8
F0.4723247232472324
sg9
F0.018450184501845
sg10
F0.6144594779281126
sg11
Nsba(icrowdsourcing.annotation_types.bbox.bbox
SingleBBox
p416
(dp417
g3
Nsg4
F0.3456334563345633
sg5
I2
sg6
F0.5
sg7
F0.0021321961620469083
sg8
F0.4176575099084324
sg9
F0.3099630996309963
sg10
F0.5488588219215526
sg11
Nsba(icrowdsourcing.annotation_types.bbox.bbox
SingleBBox
p418
(dp419
g3
Nsg4
F0.03936039360393602
sg5
I20
sg6
F0.5
sg7
F0.021321961620469083
sg8
F0.4701380347136805
sg9
F0.009840098400983991
sg10
F0.6691266912669126
sg11
Nsba(icrowdsourcing.annotation_types.bbox.bbox
SingleBBox
p420
(dp421
g3
Nsg4
F0.09717097170971707
sg5
I1
sg6
F0.5
sg7
F0.0010660980810234541
sg8
F0.48107147738144046
sg9
F0.09102091020910205
sg10
F0.5073117397840644
sg11
Nsba(icrowdsourcing.annotation_types.bbox.bbox
SingleBBox
p422
(dp423
g3
Nsg4
F0.6543665436654367
sg5
I8
sg6
F0.5
sg7
F0.008528784648187633
sg8
F0.34331009976766436
sg9
F0.4956949569495695
sg10
F0.9949432827661611
sg11
Nsba(icrowdsourcing.annotation_types.bbox.bbox
SingleBBox
p424
(dp425
g3
Nsg4
F0.9667896678966791
sg5
I1
sg6
F0.5
sg7
F0.0010660980810234541
sg8
F0.4592045920459204
sg9
F0.9569495694956949
sg10
F0.5029383627169605
sg11
Nsba(icrowdsourcing.annotation_types.bbox.bbox
SingleBBox
p426
(dp427
g3
Nsg4
F0.15621156211562112
sg5
I1
sg6
F0.5
sg7
F0.0010660980810234541
sg8
F0.4788847888478885
sg9
F0.14268142681426813
sg10
F0.5138718053847205
sg11
Nsba(icrowdsourcing.annotation_types.bbox.bbox
SingleBBox
p428
(dp429
g3
Nsg4
F0.4993849938499385
sg5
I1
sg6
F0.5
sg7
F0.0010660980810234541
sg8
F0.47451141178078443
sg9
F0.4858548585485855
sg10
F0.5182451824518245
sg11
Nsba(icrowdsourcing.annotation_types.bbox.bbox
SingleBBox
p430
(dp431
g3
Nsg4
F0.33087330873308735
sg5
I1
sg6
F0.5
sg7
F0.0010660980810234541
sg8
F0.4657646576465765
sg9
F0.31611316113161136
sg10
F0.5226185595189285
sg11
Nsba(icrowdsourcing.annotation_types.bbox.bbox
SingleBBox
p432
(dp433
g3
Nsg4
F0.5043050430504306
sg5
I1
sg6
F0.5
sg7
F0.0010660980810234541
sg8
F0.5991526581932486
sg9
F0.4095940959409594
sg10
F0.7959546262129288
sg11
Nsba(icrowdsourcing.annotation_types.bbox.bbox
SingleBBox
p434
(dp435
g3
Nsg4
F0.7466174661746617
sg5
I1
sg6
F0.5
sg7
F0.0010660980810234541
sg8
F0.45264452644526454
sg9
F0.7355473554735547
sg10
F0.5051250512505125
sg11
Nsba(icrowdsourcing.annotation_types.bbox.bbox
SingleBBox
p436
(dp437
g3
Nsg4
F0.38007380073800745
sg5
I1
sg6
F0.5
sg7
F0.0010660980810234541
sg8
F0.45264452644526443
sg9
F0.3603936039360393
sg10
F0.5248052480524805
sg11
Nsba(icrowdsourcing.annotation_types.bbox.bbox
SingleBBox
p438
(dp439
g3
Nsg4
F0.8327183271832718
sg5
I1
sg6
F0.5
sg7
F0.0010660980810234541
sg8
F0.43733770671040045
sg9
F0.7945879458794588
sg10
F0.5554188875222086
sg11
Nsba(icrowdsourcing.annotation_types.bbox.bbox
SingleBBox
p440
(dp441
g3
Nsg4
F0.5793357933579336
sg5
I4
sg6
F0.5
sg7
F0.0042643923240938165
sg8
F0.40453737870712037
sg9
F0.5301353013530135
sg10
F0.7434741014076808
sg11
Nsba(icrowdsourcing.annotation_types.bbox.bbox
SingleBBox
p442
(dp443
g3
Nsg4
F0.37761377613776137
sg5
I2
sg6
F0.5
sg7
F0.0021321961620469083
sg8
F0.46139128057947243
sg9
F0.3677736777367773
sg10
F0.5138718053847204
sg11
Nsba(icrowdsourcing.annotation_types.bbox.bbox
SingleBBox
p444
(dp445
g3
Nsg4
F0.3665436654366544
sg5
I2
sg6
F0.5
sg7
F0.0021321961620469083
sg8
F0.4635779691130245
sg9
F0.35547355473554737
sg10
F0.5138718053847204
sg11
Nsba(icrowdsourcing.annotation_types.bbox.bbox
SingleBBox
p446
(dp447
g3
Nsg4
F0.12423124231242308
sg5
I1
sg6
F0.5
sg7
F0.0010660980810234541
sg8
F0.4701380347136805
sg9
F0.1094710947109471
sg10
F0.5226185595189284
sg11
Nsba(icrowdsourcing.annotation_types.bbox.bbox
SingleBBox
p448
(dp449
g3
Nsg4
F0.06396063960639604
sg5
I14
sg6
F0.5
sg7
F0.014925373134328358
sg8
F0.4570179035123685
sg9
F0.0
sg10
F0.8331283312833129
sg11
Nsba(icrowdsourcing.annotation_types.bbox.bbox
SingleBBox
p450
(dp451
g3
Nsg4
F0.3456334563345633
sg5
I2
sg6
F0.5
sg7
F0.0021321961620469083
sg8
F0.47232472324723246
sg9
F0.28905289052890526
sg10
F0.6625666256662567
sg11
Nsba(icrowdsourcing.annotation_types.bbox.bbox
SingleBBox
p452
(dp453
g3
Nsg4
F0.2066420664206642
sg5
I2
sg6
F0.5
sg7
F0.0021321961620469083
sg8
F0.4198441984419844
sg9
F0.17835178351783515
sg10
F0.5357386907202406
sg11
Nsba(icrowdsourcing.annotation_types.bbox.bbox
SingleBBox
p454
(dp455
g3
Nsg4
F0.38745387453874536
sg5
I4
sg6
F0.5
sg7
F0.0042643923240938165
sg8
F0.49200492004920054
sg9
F0.33456334563345635
sg10
F0.8287549542162089
sg11
Nsba(icrowdsourcing.annotation_types.bbox.bbox
SingleBBox
p456
(dp457
g3
Nsg4
F0.27921279212792127
sg5
I3
sg6
F0.5
sg7
F0.0031982942430703624
sg8
F0.4417110837775044
sg9
F0.11439114391143912
sg10
F0.9986111111111111
sg11
Nsba(icrowdsourcing.annotation_types.bbox.bbox
SingleBBox
p458
(dp459
g3
Nsg4
F0.6088560885608856
sg5
I1
sg6
F0.5
sg7
F0.0010660980810234541
sg8
F0.4132841328413284
sg9
F0.5928659286592866
sg10
F0.5226185595189284
sg11
Nsba(icrowdsourcing.annotation_types.bbox.bbox
SingleBBox
p460
(dp461
g3
Nsg4
F0.43419434194341944
sg5
I1
sg6
F0.5
sg7
F0.0010660980810234541
sg8
F0.4460844608446084
sg9
F0.3788437884378844
sg10
F0.6669400027333605
sg11
Nsba(icrowdsourcing.annotation_types.bbox.bbox
SingleBBox
p462
(dp463
g3
Nsg4
F0.43665436654366535
sg5
I1
sg6
F0.5
sg7
F0.0010660980810234541
sg8
F0.46139128057947243
sg9
F0.4268142681426815
sg10
F0.5029383627169605
sg11
Nsba(icrowdsourcing.annotation_types.bbox.bbox
SingleBBox
p464
(dp465
g3
Nsg4
F0.7736777367773676
sg5
I1
sg6
F0.5
sg7
F0.0010660980810234541
sg8
F0.45483121497881646
sg9
F0.7675276752767527
sg10
F0.4701380347136805
sg11
Nsba(icrowdsourcing.annotation_types.bbox.bbox
SingleBBox
p466
(dp467
g3
Nsg4
F0.7884378843788438
sg5
I1
sg6
F0.5
sg7
F0.0010660980810234541
sg8
F0.45483121497881646
sg9
F0.7822878228782288
sg10
F0.4854448544485445
sg11
Nsba(icrowdsourcing.annotation_types.bbox.bbox
SingleBBox
p468
(dp469
g3
Nsg4
F0.3862238622386224
sg5
I1
sg6
F0.5
sg7
F0.0010660980810234541
sg8
F0.4329643296432964
sg9
F0.3480934809348094
sg10
F0.5554188875222085
sg11
Nsba(icrowdsourcing.annotation_types.bbox.bbox
SingleBBox
p470
(dp471
g3
Nsg4
F0.9778597785977862
sg5
I2
sg6
F0.5
sg7
F0.0021321961620469083
sg8
F0.45045783791171246
sg9
F0.959409594095941
sg10
F0.5422987563208965
sg11
Nsba(icrowdsourcing.annotation_types.bbox.bbox
SingleBBox
p472
(dp473
g3
Nsg4
F0.1931119311193112
sg5
I1
sg6
F0.5
sg7
F0.0010660980810234541
sg8
F0.4395243952439524
sg9
F0.17712177121771217
sg10
F0.5422987563208966
sg11
Nsba(icrowdsourcing.annotation_types.bbox.bbox
SingleBBox
p474
(dp475
g3
Nsg4
F0.3407134071340714
sg5
I1
sg6
F0.5
sg7
F0.0010660980810234541
sg8
F0.4351510181768485
sg9
F0.3296432964329643
sg10
F0.47888478884788854
sg11
Nsba(icrowdsourcing.annotation_types.bbox.bbox
SingleBBox
p476
(dp477
g3
Nsg4
F0.4132841328413284
sg5
I2
sg6
F0.5
sg7
F0.0021321961620469083
sg8
F0.4307776411097444
sg9
F0.4059040590405904
sg10
F0.45701790351236843
sg11
Nsba(icrowdsourcing.annotation_types.bbox.bbox
SingleBBox
p478
(dp479
g3
Nsg4
F0.7970479704797049
sg5
I2
sg6
F0.5
sg7
F0.0021321961620469083
sg8
F0.45045783791171234
sg9
F0.7539975399753998
sg10
F0.6363263632636327
sg11
Nsba(icrowdsourcing.annotation_types.bbox.bbox
SingleBBox
p480
(dp481
g3
Nsg4
F0.8511685116851169
sg5
I3
sg6
F0.5
sg7
F0.0031982942430703624
sg8
F0.4329643296432964
sg9
F0.7872078720787208
sg10
F0.6647533141998087
sg11
Nsba(icrowdsourcing.annotation_types.bbox.bbox
SingleBBox
p482
(dp483
g3
Nsg4
F0.9286592865928658
sg5
I1
sg6
F0.5
sg7
F0.0010660980810234541
sg8
F0.4264042640426404
sg9
F0.908979089790898
sg10
F0.5313653136531366
sg11
Nsba(icrowdsourcing.annotation_types.bbox.bbox
SingleBBox
p484
(dp485
g3
Nsg4
F0.09225092250922506
sg5
I2
sg6
F0.5
sg7
F0.0021321961620469083
sg8
F0.43733770671040045
sg9
F0.07134071340713406
sg10
F0.5291786251195846
sg11
Nsba(icrowdsourcing.annotation_types.bbox.bbox
SingleBBox
p486
(dp487
g3
Nsg4
F0.35301353013530135
sg5
I1
sg6
F0.5
sg7
F0.0010660980810234541
sg8
F0.42421757550908834
sg9
F0.3456334563345633
sg10
F0.45483121497881646
sg11
Nsba(icrowdsourcing.annotation_types.bbox.bbox
SingleBBox
p488
(dp489
g3
Nsg4
F0.4317343173431734
sg5
I1
sg6
F0.5
sg7
F0.0010660980810234541
sg8
F0.4264042640426404
sg9
F0.4243542435424354
sg10
F0.45920459204592057
sg11
Nsba(icrowdsourcing.annotation_types.bbox.bbox
SingleBBox
p490
(dp491
g3
Nsg4
F0.07626076260762604
sg5
I1
sg6
F0.5
sg7
F0.0010660980810234541
sg8
F0.46795134618012846
sg9
F0.05289052890528902
sg10
F0.6166461664616646
sg11
Nsba(icrowdsourcing.annotation_types.bbox.bbox
SingleBBox
p492
(dp493
g3
Nsg4
F0.991389913899139
sg5
I1
sg6
F0.5
sg7
F0.0010660980810234541
sg8
F0.4592045920459204
sg9
F0.976629766297663
sg10
F0.5160584939182725
sg11
Nsba(icrowdsourcing.annotation_types.bbox.bbox
SingleBBox
p494
(dp495
g3
Nsg4
F0.906519065190652
sg5
I3
sg6
F0.5
sg7
F0.0031982942430703624
sg8
F0.4220308869755363
sg9
F0.8806888068880688
sg10
F0.5248052480524805
sg11
Nsba(icrowdsourcing.annotation_types.bbox.bbox
SingleBBox
p496
(dp497
g3
Nsg4
F0.06642066420664203
sg5
I1
sg6
F0.5
sg7
F0.0010660980810234541
sg8
F0.4701380347136805
sg9
F0.06273062730627303
sg10
F0.5007516741834086
sg11
Nsba(icrowdsourcing.annotation_types.bbox.bbox
SingleBBox
p498
(dp499
g3
Nsg4
F0.07380073800738005
sg5
I1
sg6
F0.5
sg7
F0.0010660980810234541
sg8
F0.4723247232472324
sg9
F0.06765067650676504
sg10
F0.5029383627169605
sg11
Nsba(icrowdsourcing.annotation_types.bbox.bbox
SingleBBox
p500
(dp501
g3
Nsg4
F0.37761377613776137
sg5
I1
sg6
F0.5
sg7
F0.0010660980810234541
sg8
F0.4351510181768485
sg9
F0.37023370233702335
sg10
F0.4635779691130245
sg11
Nsba(icrowdsourcing.annotation_types.bbox.bbox
SingleBBox
p502
(dp503
g3
Nsg4
F0.46740467404674046
sg5
I1
sg6
F0.5
sg7
F0.0010660980810234541
sg8
F0.4329643296432964
sg9
F0.46002460024600245
sg10
F0.4635779691130245
sg11
Nsba(icrowdsourcing.annotation_types.bbox.bbox
SingleBBox
p504
(dp505
g3
Nsg4
F0.99921875
sg5
I1
sg6
F0.5
sg7
F0.0010660980810234541
sg8
F0.6428864288642886
sg9
F0.9938499384993851
sg10
F0.7150471504715047
sg11
Nsba(icrowdsourcing.annotation_types.bbox.bbox
SingleBBox
p506
(dp507
g3
Nsg4
F0.2804428044280443
sg5
I1
sg6
F0.5
sg7
F0.0010660980810234541
sg8
F0.42859095257619245
sg9
F0.26691266912669126
sg10
F0.47451141178078443
sg11
Nsba(icrowdsourcing.annotation_types.bbox.bbox
SingleBBox
p508
(dp509
g3
Nsg4
F0.4797047970479705
sg5
I1
sg6
F0.5
sg7
F0.0010660980810234541
sg8
F0.40672406724067245
sg9
F0.4157441574415744
sg10
F0.6822468224682245
sg11
Nsba(icrowdsourcing.annotation_types.bbox.bbox
SingleBBox
p510
(dp511
g3
Nsg4
F0.33948339483394835
sg5
I1
sg6
F0.5
sg7
F0.0010660980810234541
sg8
F0.42859095257619245
sg9
F0.33456334563345635
sg10
F0.45483121497881646
sg11
Nsba(icrowdsourcing.annotation_types.bbox.bbox
SingleBBox
p512
(dp513
g3
Nsg4
F0.07011070110701105
sg5
I1
sg6
F0.5
sg7
F0.0010660980810234541
sg8
F0.48763154298209643
sg9
F0.06273062730627303
sg10
F0.5160584939182725
sg11
Nsba(icrowdsourcing.annotation_types.bbox.bbox
SingleBBox
p514
(dp515
g3
Nsg4
F0.1094710947109471
sg5
I2
sg6
F0.5
sg7
F0.0021321961620469083
sg8
F0.47451141178078443
sg9
F0.09717097170971707
sg10
F0.5051250512505125
sg11
Nsba(icrowdsourcing.annotation_types.bbox.bbox
SingleBBox
p516
(dp517
g3
Nsg4
F0.3936039360393604
sg5
I1
sg6
F0.5
sg7
F0.0010660980810234541
sg8
F0.4723247232472324
sg9
F0.3788437884378844
sg10
F0.5182451824518245
sg11
Nsba(icrowdsourcing.annotation_types.bbox.bbox
SingleBBox
p518
(dp519
g3
Nsg4
F0.906519065190652
sg5
I1
sg6
F0.5
sg7
F0.0010660980810234541
sg8
F0.4395243952439524
sg9
F0.8573185731857318
sg10
F0.6275796091294246
sg11
Nsba(icrowdsourcing.annotation_types.bbox.bbox
SingleBBox
p520
(dp521
g3
Nsg4
F0.6654366543665435
sg5
I2
sg6
F0.5
sg7
F0.0021321961620469083
sg8
F0.41765750990843253
sg9
F0.6297662976629766
sg10
F0.5401120677873446
sg11
Nsba(icrowdsourcing.annotation_types.bbox.bbox
SingleBBox
p522
(dp523
g3
Nsg4
F0.6346863468634687
sg5
I2
sg6
F0.5
sg7
F0.0021321961620469083
sg8
F0.42859095257619245
sg9
F0.5707257072570726
sg10
F0.6100861008610087
sg11
Nsba(icrowdsourcing.annotation_types.bbox.bbox
SingleBBox
p524
(dp525
g3
Nsg4
F0.15867158671586715
sg5
I1
sg6
F0.5
sg7
F0.0010660980810234541
sg8
F0.46795134618012846
sg9
F0.1439114391143911
sg10
F0.5248052480524805
sg11
Nsba(icrowdsourcing.annotation_types.bbox.bbox
SingleBBox
p526
(dp527
g3
Nsg4
F0.07380073800738005
sg5
I1
sg6
F0.5
sg7
F0.0010660980810234541
sg8
F0.46795134618012846
sg9
F0.05781057810578103
sg10
F0.5182451824518245
sg11
Nsba(icrowdsourcing.annotation_types.bbox.bbox
SingleBBox
p528
(dp529
g3
Nsg4
F0.1008610086100861
sg5
I10
sg6
F0.5
sg7
F0.010660980810234541
sg8
F0.48763154298209643
sg9
F0.04182041820418203
sg10
F0.7303539702063688
sg11
Nsba(icrowdsourcing.annotation_types.bbox.bbox
SingleBBox
p530
(dp531
g3
Nsg4
F0.8327183271832717
sg5
I1
sg6
F0.5
sg7
F0.0010660980810234541
sg8
F0.45045783791171246
sg9
F0.8253382533825337
sg10
F0.48544485444854446
sg11
Nsba(icrowdsourcing.annotation_types.bbox.bbox
SingleBBox
p532
(dp533
g3
Nsg4
F0.8474784747847478
sg5
I1
sg6
F0.5
sg7
F0.0010660980810234541
sg8
F0.4460844608446084
sg9
F0.8388683886838868
sg10
F0.4766981003143365
sg11
Nsba(icrowdsourcing.annotation_types.bbox.bbox
SingleBBox
p534
(dp535
g3
Nsg4
F0.35301353013530135
sg5
I3
sg6
F0.5
sg7
F0.0031982942430703624
sg8
F0.41765750990843253
sg9
F0.1562115621156211
sg10
F0.9986111111111111
sg11
Nsba(icrowdsourcing.annotation_types.bbox.bbox
SingleBBox
p536
(dp537
g3
Nsg4
F0.4956949569495695
sg5
I1
sg6
F0.5
sg7
F0.0010660980810234541
sg8
F0.40672406724067245
sg9
F0.46371463714637146
sg10
F0.5488588219215527
sg11
Nsba(icrowdsourcing.annotation_types.bbox.bbox
SingleBBox
p538
(dp539
g3
Nsg4
F0.948339483394834
sg5
I1
sg6
F0.5
sg7
F0.0010660980810234541
sg8
F0.45264452644526454
sg9
F0.9175891758917588
sg10
F0.5860325269919365
sg11
Nsba(icrowdsourcing.annotation_types.bbox.bbox
SingleBBox
p540
(dp541
g3
Nsg4
F0.21279212792127922
sg5
I1
sg6
F0.5
sg7
F0.0010660980810234541
sg8
F0.4788847888478885
sg9
F0.19926199261992616
sg10
F0.5138718053847205
sg11
Nsba(icrowdsourcing.annotation_types.bbox.bbox
SingleBBox
p542
(dp543
g3
Nsg4
F0.6051660516605166
sg5
I1
sg6
F0.5
sg7
F0.0010660980810234541
sg8
F0.4832581659149925
sg9
F0.5904059040590406
sg10
F0.5226185595189284
sg11
Nsba(icrowdsourcing.annotation_types.bbox.bbox
SingleBBox
p544
(dp545
g3
Nsg4
F0.961869618696187
sg5
I4
sg6
F0.5
sg7
F0.0042643923240938165
sg8
F0.4460844608446084
sg9
F0.923739237392374
sg10
F0.6210195435287685
sg11
Nsba(icrowdsourcing.annotation_types.bbox.bbox
SingleBBox
p546
(dp547
g3
Nsg4
F0.4920049200492005
sg5
I1
sg6
F0.5
sg7
F0.0010660980810234541
sg8
F0.4657646576465765
sg9
F0.47601476014760147
sg10
F0.5269919365860325
sg11
Nsba(icrowdsourcing.annotation_types.bbox.bbox
SingleBBox
p548
(dp549
g3
Nsg4
F0.9729397293972939
sg5
I1
sg6
F0.5
sg7
F0.0010660980810234541
sg8
F0.46139128057947243
sg9
F0.9520295202952029
sg10
F0.5816591499248326
sg11
Nsba(icrowdsourcing.annotation_types.bbox.bbox
SingleBBox
p550
(dp551
g3
Nsg4
F0.5953259532595326
sg5
I1
sg6
F0.5
sg7
F0.0010660980810234541
sg8
F0.4482711493781605
sg9
F0.5793357933579336
sg10
F0.5335520021866885
sg11
Nsba(icrowdsourcing.annotation_types.bbox.bbox
SingleBBox
p552
(dp553
g3
Nsg4
F0.6223862238622386
sg5
I5
sg6
F0.5
sg7
F0.005330490405117271
sg8
F0.3892305589722565
sg9
F0.4059040590405905
sg10
F0.9986111111111111
sg11
Nsba(icrowdsourcing.annotation_types.bbox.bbox
SingleBBox
p554
(dp555
g3
Nsg4
F0.4489544895448955
sg5
I1
sg6
F0.5
sg7
F0.0010660980810234541
sg8
F0.4766981003143365
sg9
F0.43296432964329645
sg10
F0.5182451824518245
sg11
Nsba(icrowdsourcing.annotation_types.bbox.bbox
SingleBBox
p556
(dp557
g3
Nsg4
F0.5658056580565806
sg5
I1
sg6
F0.5
sg7
F0.0010660980810234541
sg8
F0.4635779691130245
sg9
F0.5547355473554735
sg10
F0.5094984283176165
sg11
Nsba(icrowdsourcing.annotation_types.bbox.bbox
SingleBBox
p558
(dp559
g3
Nsg4
F0.08241082410824105
sg5
I1
sg6
F0.5
sg7
F0.0010660980810234541
sg8
F0.45045783791171246
sg9
F0.05781057810578103
sg10
F0.5488588219215526
sg11
Nsba(icrowdsourcing.annotation_types.bbox.bbox
SingleBBox
p560
(dp561
g3
Nsg4
F0.984009840098401
sg5
I2
sg6
F0.5
sg7
F0.0021321961620469083
sg8
F0.46576465764657654
sg9
F0.9606396063960639
sg10
F0.6122727893945605
sg11
Nsba(icrowdsourcing.annotation_types.bbox.bbox
SingleBBox
p562
(dp563
g3
Nsg4
F0.6924969249692496
sg5
I1
sg6
F0.5
sg7
F0.0010660980810234541
sg8
F0.4373377067104005
sg9
F0.6678966789667896
sg10
F0.5444854448544485
sg11
Nsba(icrowdsourcing.annotation_types.bbox.bbox
SingleBBox
p564
(dp565
g3
Nsg4
F0.045510455104551026
sg5
I1
sg6
F0.5
sg7
F0.0010660980810234541
sg8
F0.4701380347136805
sg9
F0.033210332103321014
sg10
F0.5204318709853765
sg11
Nsba(icrowdsourcing.annotation_types.bbox.bbox
SingleBBox
p566
(dp567
g3
Nsg4
F0.21525215252152527
sg5
I2
sg6
F0.5
sg7
F0.0021321961620469083
sg8
F0.4876315429820966
sg9
F0.18819188191881916
sg10
F0.7609676096760967
sg11
Nsba(icrowdsourcing.annotation_types.bbox.bbox
SingleBBox
p568
(dp569
g3
Nsg4
F0.5190651906519065
sg5
I1
sg6
F0.5
sg7
F0.0010660980810234541
sg8
F0.42859095257619245
sg9
F0.4858548585485856
sg10
F0.6035260352603526
sg11
Nsba(icrowdsourcing.annotation_types.bbox.bbox
SingleBBox
p570
(dp571
g3
Nsg4
F0.1180811808118081
sg5
I1
sg6
F0.5
sg7
F0.0010660980810234541
sg8
F0.4832581659149925
sg9
F0.10824108241082409
sg10
F0.5094984283176165
sg11
Nsba(icrowdsourcing.annotation_types.bbox.bbox
SingleBBox
p572
(dp573
g3
Nsg4
F0.1353013530135301
sg5
I2
sg6
F0.5
sg7
F0.0021321961620469083
sg8
F0.5685390187235206
sg9
F0.08856088560885607
sg10
F0.7150471504715047
sg11
Nsba(icrowdsourcing.annotation_types.bbox.bbox
SingleBBox
p574
(dp575
g3
Nsg4
F0.7785977859778598
sg5
I1
sg6
F0.5
sg7
F0.0010660980810234541
sg8
F0.48107147738144046
sg9
F0.7638376383763837
sg10
F0.5182451824518245
sg11
Nsba(icrowdsourcing.annotation_types.bbox.bbox
SingleBBox
p576
(dp577
g3
Nsg4
F0.017220172201722006
sg5
I1
sg6
F0.5
sg7
F0.0010660980810234541
sg8
F0.5422987563208964
sg9
F0.0
sg10
F0.6975536422030887
sg11
Nsba(icrowdsourcing.annotation_types.bbox.bbox
SingleBBox
p578
(dp579
g3
Nsg4
F0.99921875
sg5
I1
sg6
F0.5
sg7
F0.0010660980810234541
sg8
F0.47888478884788854
sg9
F0.985239852398524
sg10
F0.7544075440754408
sg11
Nsba(icrowdsourcing.annotation_types.bbox.bbox
SingleBBox
p580
(dp581
g3
Nsg4
F0.35424354243542433
sg5
I1
sg6
F0.5
sg7
F0.0010660980810234541
sg8
F0.4351510181768485
sg9
F0.3198031980319803
sg10
F0.5510455104551045
sg11
Nsba(icrowdsourcing.annotation_types.bbox.bbox
SingleBBox
p582
(dp583
g3
Nsg4
F0.09594095940959409
sg5
I1
sg6
F0.5
sg7
F0.0010660980810234541
sg8
F0.4876315429820965
sg9
F0.08856088560885607
sg10
F0.5204318709853765
sg11
Nsba(icrowdsourcing.annotation_types.bbox.bbox
SingleBBox
p584
(dp585
g3
Nsg4
F0.8523985239852399
sg5
I1
sg6
F0.5
sg7
F0.0010660980810234541
sg8
F0.44171108377750445
sg9
F0.8241082410824108
sg10
F0.5160584939182725
sg11
Nsba(icrowdsourcing.annotation_types.bbox.bbox
SingleBBox
p586
(dp587
g3
Nsg4
F0.8007380073800737
sg5
I1
sg6
F0.5
sg7
F0.0010660980810234541
sg8
F0.4482711493781605
sg9
F0.7822878228782288
sg10
F0.5269919365860324
sg11
Nsba(icrowdsourcing.annotation_types.bbox.bbox
SingleBBox
p588
(dp589
g3
Nsg4
F0.7011070110701108
sg5
I1
sg6
F0.5
sg7
F0.0010660980810234541
sg8
F0.4832581659149925
sg9
F0.6851168511685117
sg10
F0.5226185595189284
sg11
Nsba(icrowdsourcing.annotation_types.bbox.bbox
SingleBBox
p590
(dp591
g3
Nsg4
F0.36531365313653136
sg5
I1
sg6
F0.5
sg7
F0.0010660980810234541
sg8
F0.4264042640426404
sg9
F0.35793357933579334
sg10
F0.45920459204592057
sg11
Nsba(icrowdsourcing.annotation_types.bbox.bbox
SingleBBox
p592
(dp593
g3
Nsg4
F0.4489544895448955
sg5
I1
sg6
F0.5
sg7
F0.0010660980810234541
sg8
F0.4264042640426404
sg9
F0.44157441574415746
sg10
F0.4570179035123685
sg11
Nsba(icrowdsourcing.annotation_types.bbox.bbox
SingleBBox
p594
(dp595
g3
Nsg4
F0.7035670356703567
sg5
I1
sg6
F0.5
sg7
F0.0010660980810234541
sg8
F0.4482711493781605
sg9
F0.6875768757687577
sg10
F0.5335520021866885
sg11
Nsba(icrowdsourcing.annotation_types.bbox.bbox
SingleBBox
p596
(dp597
g3
Nsg4
F0.1008610086100861
sg5
I1
sg6
F0.5
sg7
F0.0010660980810234541
sg8
F0.46576465764657654
sg9
F0.08118081180811805
sg10
F0.5335520021866885
sg11
Nsba(icrowdsourcing.annotation_types.bbox.bbox
SingleBBox
p598
(dp599
g3
Nsg4
F0.13899138991389912
sg5
I1
sg6
F0.5
sg7
F0.0010660980810234541
sg8
F0.47451141178078443
sg9
F0.11685116851168509
sg10
F0.5422987563208964
sg11
Nsba(icrowdsourcing.annotation_types.bbox.bbox
SingleBBox
p600
(dp601
g3
Nsg4
F0.3050430504305043
sg5
I1
sg6
F0.5
sg7
F0.0010660980810234541
sg8
F0.40453737870712037
sg9
F0.2853628536285363
sg10
F0.5291786251195845
sg11
Nsba(icrowdsourcing.annotation_types.bbox.bbox
SingleBBox
p602
(dp603
g3
Nsg4
F0.3899138991389914
sg5
I1
sg6
F0.5
sg7
F0.0010660980810234541
sg8
F0.42859095257619245
sg9
F0.3825338253382534
sg10
F0.45483121497881646
sg11
Nsba(icrowdsourcing.annotation_types.bbox.bbox
SingleBBox
p604
(dp605
g3
Nsg4
F0.4833948339483395
sg5
I1
sg6
F0.5
sg7
F0.0010660980810234541
sg8
F0.4264042640426404
sg9
F0.4772447724477245
sg10
F0.45920459204592057
sg11
Nsba(icrowdsourcing.annotation_types.bbox.bbox
SingleBBox
p606
(dp607
g3
Nsg4
F0.10578105781057807
sg5
I1
sg6
F0.5
sg7
F0.0010660980810234541
sg8
F0.46139128057947243
sg9
F0.09348093480934808
sg10
F0.5379253792537925
sg11
Nsba(icrowdsourcing.annotation_types.bbox.bbox
SingleBBox
p608
(dp609
g3
Nsg4
F0.5744157441574416
sg5
I1
sg6
F0.5
sg7
F0.0010660980810234541
sg8
F0.47451141178078443
sg9
F0.5621156211562116
sg10
F0.5248052480524805
sg11
Nsba(icrowdsourcing.annotation_types.bbox.bbox
SingleBBox
p610
(dp611
g3
Nsg4
F0.6691266912669127
sg5
I1
sg6
F0.5
sg7
F0.0010660980810234541
sg8
F0.4635779691130245
sg9
F0.6223862238622386
sg10
F0.6188328549952167
sg11
Nsba(icrowdsourcing.annotation_types.bbox.bbox
SingleBBox
p612
(dp613
g3
Nsg4
F0.2619926199261993
sg5
I1
sg6
F0.5
sg7
F0.0010660980810234541
sg8
F0.48107147738144046
sg9
F0.25092250922509224
sg10
F0.5138718053847205
sg11
Nsba(icrowdsourcing.annotation_types.bbox.bbox
SingleBBox
p614
(dp615
g3
Nsg4
F0.05781057810578103
sg5
I1
sg6
F0.5
sg7
F0.0010660980810234541
sg8
F0.45045783791171234
sg9
F0.045510455104551026
sg10
F0.48107147738144046
sg11
Nsba(icrowdsourcing.annotation_types.bbox.bbox
SingleBBox
p616
(dp617
g3
Nsg4
F0.03444034440344401
sg5
I1
sg6
F0.5
sg7
F0.0010660980810234541
sg8
F0.4395243952439524
sg9
F0.015990159901599
sg10
F0.5138718053847205
sg11
Nsba(icrowdsourcing.annotation_types.bbox.bbox
SingleBBox
p618
(dp619
g3
Nsg4
F0.007380073800737989
sg5
I1
sg6
F0.5
sg7
F0.0010660980810234541
sg8
F0.4438977723110564
sg9
F0.0012300123001229846
sg10
F0.5138718053847205
sg11
Nsba(icrowdsourcing.annotation_types.bbox.bbox
SingleBBox
p620
(dp621
g3
Nsg4
F0.7822878228782286
sg5
I1
sg6
F0.5
sg7
F0.0010660980810234541
sg8
F0.47232472324723257
sg9
F0.7281672816728169
sg10
F0.7653409867432008
sg11
Nsba.