(lp0
(icrowdsourcing.annotation_types.bbox.bbox
SingleBBox
p1
(dp2
S'a'
p3
NsS'x2'
p4
F0.13530135301353008
sS'num'
p5
I390
sS'w'
p6
F0.5
sS'prob_fp'
p7
F0.03847671665351223
sS'y'
p8
F0.45920459204592057
sS'x'
p9
F0.05658056580565805
sS'y2'
p10
F0.7609676096760967
sS'sigma'
p11
Nsba(icrowdsourcing.annotation_types.bbox.bbox
SingleBBox
p12
(dp13
g3
Nsg4
F0.29028290282902824
sg5
I6
sg6
F0.5
sg7
F0.0005919494869771113
sg8
F0.4482711493781605
sg9
F0.2546125461254613
sg10
F0.6275796091294246
sg11
Nsba(icrowdsourcing.annotation_types.bbox.bbox
SingleBBox
p14
(dp15
g3
Nsg4
F0.3025830258302583
sg5
I134
sg6
F0.5
sg7
F0.013220205209155485
sg8
F0.4635779691130245
sg9
F0.16728167281672812
sg10
F0.9359026923602569
sg11
Nsba(icrowdsourcing.annotation_types.bbox.bbox
SingleBBox
p16
(dp17
g3
Nsg4
F0.35793357933579334
sg5
I61
sg6
F0.5
sg7
F0.0060181531176006315
sg8
F0.30832308323083224
sg9
F0.1635916359163591
sg10
F0.9986111111111111
sg11
Nsba(icrowdsourcing.annotation_types.bbox.bbox
SingleBBox
p18
(dp19
g3
Nsg4
F0.6469864698646987
sg5
I230
sg6
F0.5
sg7
F0.022691397000789267
sg8
F0.41547082137488034
sg9
F0.5645756457564577
sg10
F0.7675276752767527
sg11
Nsba(icrowdsourcing.annotation_types.bbox.bbox
SingleBBox
p20
(dp21
g3
Nsg4
F0.03813038130381301
sg5
I375
sg6
F0.5
sg7
F0.03699684293606945
sg8
F0.4766981003143365
sg9
F0.00615006150061499
sg10
F0.6560065600656007
sg11
Nsba(icrowdsourcing.annotation_types.bbox.bbox
SingleBBox
p22
(dp23
g3
Nsg4
F0.15990159901599013
sg5
I346
sg6
F0.5
sg7
F0.03413575374901342
sg8
F0.46795134618012846
sg9
F0.07749077490774904
sg10
F0.7369140358070247
sg11
Nsba(icrowdsourcing.annotation_types.bbox.bbox
SingleBBox
p24
(dp25
g3
Nsg4
F0.08241082410824105
sg5
I432
sg6
F0.5
sg7
F0.042620363062352014
sg8
F0.42421757550908834
sg9
F0.024600246002460004
sg10
F0.7216072160721607
sg11
Nsba(icrowdsourcing.annotation_types.bbox.bbox
SingleBBox
p26
(dp27
g3
Nsg4
F0.15252152521525214
sg5
I9
sg6
F0.5
sg7
F0.000887924230465667
sg8
F0.4351510181768485
sg9
F0.1266912669126691
sg10
F0.5379253792537925
sg11
Nsba(icrowdsourcing.annotation_types.bbox.bbox
SingleBBox
p28
(dp29
g3
Nsg4
F0.09471094710947107
sg5
I309
sg6
F0.5
sg7
F0.03048539857932123
sg8
F0.3979773131064644
sg9
F0.003690036900368987
sg10
F0.7806478064780648
sg11
Nsba(icrowdsourcing.annotation_types.bbox.bbox
SingleBBox
p30
(dp31
g3
Nsg4
F0.024600246002460004
sg5
I301
sg6
F0.5
sg7
F0.029696132596685083
sg8
F0.46795134618012846
sg9
F0.0
sg10
F0.6450731173978407
sg11
Nsba(icrowdsourcing.annotation_types.bbox.bbox
SingleBBox
p32
(dp33
g3
Nsg4
F0.86469864698647
sg5
I155
sg6
F0.5
sg7
F0.015292028413575375
sg8
F0.4110974443077764
sg9
F0.7872078720787209
sg10
F0.7019270192701926
sg11
Nsba(icrowdsourcing.annotation_types.bbox.bbox
SingleBBox
p34
(dp35
g3
Nsg4
F0.947109471094711
sg5
I234
sg6
F0.5
sg7
F0.02308602999210734
sg8
F0.4110974443077764
sg9
F0.879458794587946
sg10
F0.7172338390050568
sg11
Nsba(icrowdsourcing.annotation_types.bbox.bbox
SingleBBox
p36
(dp37
g3
Nsg4
F0.04674046740467404
sg5
I260
sg6
F0.5
sg7
F0.025651144435674823
sg8
F0.40453737870712037
sg9
F0.0
sg10
F0.8375017083504168
sg11
Nsba(icrowdsourcing.annotation_types.bbox.bbox
SingleBBox
p38
(dp39
g3
Nsg4
F0.11685116851168509
sg5
I203
sg6
F0.5
sg7
F0.020027624309392266
sg8
F0.49200492004920054
sg9
F0.06765067650676504
sg10
F0.6953669536695366
sg11
Nsba(icrowdsourcing.annotation_types.bbox.bbox
SingleBBox
p40
(dp41
g3
Nsg4
F0.08701134930643128
sg5
I1
sg6
F0.5
sg7
F9.865824782951855e-05
sg8
F0.5533977656600287
sg9
F0.045397225725094574
sg10
F0.652038685393898
sg11
Nsba(icrowdsourcing.annotation_types.bbox.bbox
SingleBBox
p42
(dp43
g3
Nsg4
F0.05289052890528902
sg5
I526
sg6
F0.5
sg7
F0.05189423835832676
sg8
F0.47451141178078443
sg9
F0.00615006150061499
sg10
F0.7325406587399207
sg11
Nsba(icrowdsourcing.annotation_types.bbox.bbox
SingleBBox
p44
(dp45
g3
Nsg4
F0.8819188191881919
sg5
I273
sg6
F0.5
sg7
F0.026933701657458564
sg8
F0.4460844608446084
sg9
F0.7982779827798276
sg10
F0.8440617739510727
sg11
Nsba(icrowdsourcing.annotation_types.bbox.bbox
SingleBBox
p46
(dp47
g3
Nsg4
F0.1795817958179582
sg5
I376
sg6
F0.5
sg7
F0.037095501183898975
sg8
F0.44389777231105654
sg9
F0.0996309963099631
sg10
F0.7784611179445128
sg11
Nsba(icrowdsourcing.annotation_types.bbox.bbox
SingleBBox
p48
(dp49
g3
Nsg4
F0.5362853628536286
sg5
I155
sg6
F0.5
sg7
F0.015292028413575375
sg8
F0.4395243952439524
sg9
F0.45018450184501846
sg10
F0.8418750854175209
sg11
Nsba(icrowdsourcing.annotation_types.bbox.bbox
SingleBBox
p50
(dp51
g3
Nsg4
F0.5239852398523985
sg5
I43
sg6
F0.5
sg7
F0.004242304656669298
sg8
F0.38923055897225634
sg9
F0.46740467404674046
sg10
F0.7806478064780648
sg11
Nsba(icrowdsourcing.annotation_types.bbox.bbox
SingleBBox
p52
(dp53
g3
Nsg4
F0.6113161131611317
sg5
I49
sg6
F0.5
sg7
F0.004834254143646409
sg8
F0.2973896405630723
sg9
F0.3505535055350554
sg10
F0.8943556102227689
sg11
Nsba(icrowdsourcing.annotation_types.bbox.bbox
SingleBBox
p54
(dp55
g3
Nsg4
F0.3444034440344403
sg5
I218
sg6
F0.5
sg7
F0.021507498026835044
sg8
F0.4242175755090885
sg9
F0.23616236162361623
sg10
F0.8528085280852808
sg11
Nsba(icrowdsourcing.annotation_types.bbox.bbox
SingleBBox
p56
(dp57
g3
Nsg4
F0.3751537515375153
sg5
I303
sg6
F0.5
sg7
F0.02989344909234412
sg8
F0.4504578379117125
sg9
F0.2829028290282903
sg10
F0.7981413147464808
sg11
Nsba(icrowdsourcing.annotation_types.bbox.bbox
SingleBBox
p58
(dp59
g3
Nsg4
F0.2919389874327416
sg5
I110
sg6
F0.5
sg7
F0.010852407261247041
sg8
F0.40522875816993464
sg9
F0.23188996782489846
sg10
F0.7952069716775598
sg11
Nsba(icrowdsourcing.annotation_types.bbox.bbox
SingleBBox
p60
(dp61
g3
Nsg4
F0.3287036933150945
sg5
I1
sg6
F0.5
sg7
F9.865824782951855e-05
sg8
F0.40522875816993476
sg9
F0.30419388939352593
sg10
F0.8148148148148148
sg11
Nsba(icrowdsourcing.annotation_types.bbox.bbox
SingleBBox
p62
(dp63
g3
Nsg4
F0.028290282902829
sg5
I191
sg6
F0.5
sg7
F0.018843725335438044
sg8
F0.49200492004920054
sg9
F0.0
sg10
F0.7697143638103048
sg11
Nsba(icrowdsourcing.annotation_types.bbox.bbox
SingleBBox
p64
(dp65
g3
Nsg4
F0.10332103321033208
sg5
I369
sg6
F0.5
sg7
F0.03640489344909235
sg8
F0.4701380347136805
sg9
F0.03690036900369002
sg10
F0.7369140358070247
sg11
Nsba(icrowdsourcing.annotation_types.bbox.bbox
SingleBBox
p66
(dp67
g3
Nsg4
F0.9212792127921279
sg5
I126
sg6
F0.5
sg7
F0.012430939226519336
sg8
F0.4395243952439524
sg9
F0.8819188191881917
sg10
F0.6866201995353287
sg11
Nsba(icrowdsourcing.annotation_types.bbox.bbox
SingleBBox
p68
(dp69
g3
Nsg4
F0.9778597785977861
sg5
I253
sg6
F0.5
sg7
F0.024960536700868192
sg8
F0.4110974443077764
sg9
F0.931119311193112
sg10
F0.7281672816728167
sg11
Nsba(icrowdsourcing.annotation_types.bbox.bbox
SingleBBox
p70
(dp71
g3
Nsg4
F0.4182041820418204
sg5
I1
sg6
F0.5
sg7
F9.865824782951855e-05
sg8
F0.4570179035123684
sg9
F0.39729397293972946
sg10
F0.5182451824518245
sg11
Nsba(icrowdsourcing.annotation_types.bbox.bbox
SingleBBox
p72
(dp73
g3
Nsg4
F0.8081180811808117
sg5
I1
sg6
F0.5
sg7
F9.865824782951855e-05
sg8
F0.46576465764657654
sg9
F0.7970479704797049
sg10
F0.5182451824518245
sg11
Nsba(icrowdsourcing.annotation_types.bbox.bbox
SingleBBox
p74
(dp75
g3
Nsg4
F0.4280442804428043
sg5
I1
sg6
F0.5
sg7
F9.865824782951855e-05
sg8
F0.4460844608446084
sg9
F0.3948339483394834
sg10
F0.5313653136531366
sg11
Nsba(icrowdsourcing.annotation_types.bbox.bbox
SingleBBox
p76
(dp77
g3
Nsg4
F0.42996108949416334
sg5
I1
sg6
F0.5
sg7
F9.865824782951855e-05
sg8
F0.46346735840899267
sg9
F0.3852140077821012
sg10
F0.5153480328577604
sg11
Nsba(icrowdsourcing.annotation_types.bbox.bbox
SingleBBox
p78
(dp79
g3
Nsg4
F0.8249027237354088
sg5
I1
sg6
F0.5
sg7
F9.865824782951855e-05
sg8
F0.4669260700389105
sg9
F0.7801556420233464
sg10
F0.5118893212278426
sg11
Nsba(icrowdsourcing.annotation_types.bbox.bbox
SingleBBox
p80
(dp81
g3
Nsg4
F0.8154981549815498
sg5
I192
sg6
F0.5
sg7
F0.018942383583267563
sg8
F0.41547082137488045
sg9
F0.7466174661746617
sg10
F0.7325406587399207
sg11
Nsba(icrowdsourcing.annotation_types.bbox.bbox
SingleBBox
p82
(dp83
g3
Nsg4
F0.8458605560601926
sg5
I193
sg6
F0.5
sg7
F0.019041041831097078
sg8
F0.3921568627450981
sg9
F0.7184095756680359
sg10
F0.7973856209150327
sg11
Nsba(icrowdsourcing.annotation_types.bbox.bbox
SingleBBox
p84
(dp85
g3
Nsg4
F0.5104551045510455
sg5
I197
sg6
F0.5
sg7
F0.019435674822415153
sg8
F0.4132841328413284
sg9
F0.36162361623616235
sg10
F0.8243815771491048
sg11
Nsba(icrowdsourcing.annotation_types.bbox.bbox
SingleBBox
p86
(dp87
g3
Nsg4
F0.22140221402214025
sg5
I132
sg6
F0.5
sg7
F0.013022888713496448
sg8
F0.4110974443077764
sg9
F0.1476014760147601
sg10
F0.6778734454011206
sg11
Nsba(icrowdsourcing.annotation_types.bbox.bbox
SingleBBox
p88
(dp89
g3
Nsg4
F0.46863468634686345
sg5
I18
sg6
F0.5
sg7
F0.001775848460931334
sg8
F0.4132841328413284
sg9
F0.4280442804428044
sg10
F0.6735000683340167
sg11
Nsba(icrowdsourcing.annotation_types.bbox.bbox
SingleBBox
p90
(dp91
g3
Nsg4
F0.8364083640836408
sg5
I7
sg6
F0.5
sg7
F0.0006906077348066298
sg8
F0.4132841328413284
sg9
F0.80319803198032
sg10
F0.5379253792537925
sg11
Nsba(icrowdsourcing.annotation_types.bbox.bbox
SingleBBox
p92
(dp93
g3
Nsg4
F0.9102091020910208
sg5
I15
sg6
F0.5
sg7
F0.0014798737174427782
sg8
F0.40672406724067245
sg9
F0.8831488314883149
sg10
F0.5466721333880006
sg11
Nsba(icrowdsourcing.annotation_types.bbox.bbox
SingleBBox
p94
(dp95
g3
Nsg4
F0.4809348093480935
sg5
I35
sg6
F0.5
sg7
F0.003453038674033149
sg8
F0.43733770671040045
sg9
F0.40590405904059035
sg10
F0.6625666256662567
sg11
Nsba(icrowdsourcing.annotation_types.bbox.bbox
SingleBBox
p96
(dp97
g3
Nsg4
F0.2841328413284133
sg5
I1
sg6
F0.5
sg7
F9.865824782951855e-05
sg8
F0.4132841328413284
sg9
F0.2644526445264453
sg10
F0.48981823151564846
sg11
Nsba(icrowdsourcing.annotation_types.bbox.bbox
SingleBBox
p98
(dp99
g3
Nsg4
F0.12054120541205411
sg5
I18
sg6
F0.5
sg7
F0.001775848460931334
sg8
F0.4264042640426404
sg9
F0.08487084870848707
sg10
F0.5466721333880006
sg11
Nsba(icrowdsourcing.annotation_types.bbox.bbox
SingleBBox
p100
(dp101
g3
Nsg4
F0.2004920049200492
sg5
I47
sg6
F0.5
sg7
F0.004636937647987372
sg8
F0.42859095257619245
sg9
F0.16113161131611314
sg10
F0.6669400027333605
sg11
Nsba(icrowdsourcing.annotation_types.bbox.bbox
SingleBBox
p102
(dp103
g3
Nsg4
F0.1131611316113161
sg5
I11
sg6
F0.5
sg7
F0.001085240726124704
sg8
F0.43733770671040045
sg9
F0.09225092250922505
sg10
F0.5357386907202405
sg11
Nsba(icrowdsourcing.annotation_types.bbox.bbox
SingleBBox
p104
(dp105
g3
Nsg4
F0.8239892870553881
sg5
I8
sg6
F0.5
sg7
F0.0007892659826361484
sg8
F0.39967239967239976
sg9
F0.7895912526573536
sg10
F0.5328965328965327
sg11
Nsba(icrowdsourcing.annotation_types.bbox.bbox
SingleBBox
p106
(dp107
g3
Nsg4
F0.2804428044280443
sg5
I1
sg6
F0.5
sg7
F9.865824782951855e-05
sg8
F0.43077764110974437
sg9
F0.26937269372693723
sg10
F0.4766981003143365
sg11
Nsba(icrowdsourcing.annotation_types.bbox.bbox
SingleBBox
p108
(dp109
g3
Nsg4
F0.19166570571955716
sg5
I1
sg6
F0.5
sg7
F9.865824782951855e-05
sg8
F0.7605832308323083
sg9
F0.19166570571955716
sg10
F0.7605832308323083
sg11
Nsba(icrowdsourcing.annotation_types.bbox.bbox
SingleBBox
p110
(dp111
g3
Nsg4
F0.4132841328413284
sg5
I1
sg6
F0.5
sg7
F9.865824782951855e-05
sg8
F0.4110974443077764
sg9
F0.4132841328413284
sg10
F0.41765750990843253
sg11
Nsba(icrowdsourcing.annotation_types.bbox.bbox
SingleBBox
p112
(dp113
g3
Nsg4
F0.7711038961038963
sg5
I5
sg6
F0.5
sg7
F0.0004932912391475928
sg8
F0.455988455988456
sg9
F0.7451298701298701
sg10
F0.5252525252525253
sg11
Nsba(icrowdsourcing.annotation_types.bbox.bbox
SingleBBox
p114
(dp115
g3
Nsg4
F0.7650676506765068
sg5
I1
sg6
F0.5
sg7
F9.865824782951855e-05
sg8
F0.46795134618012846
sg9
F0.7552275522755227
sg10
F0.5248052480524805
sg11
Nsba(icrowdsourcing.annotation_types.bbox.bbox
SingleBBox
p116
(dp117
g3
Nsg4
F0.968019680196802
sg5
I115
sg6
F0.5
sg7
F0.011345698500394633
sg8
F0.4482711493781605
sg9
F0.9397293972939732
sg10
F0.6953669536695366
sg11
Nsba(icrowdsourcing.annotation_types.bbox.bbox
SingleBBox
p118
(dp119
g3
Nsg4
F0.99921875
sg5
I124
sg6
F0.5
sg7
F0.0122336227308603
sg8
F0.4766981003143365
sg9
F0.984009840098401
sg10
F0.6975536422030887
sg11
Nsba(icrowdsourcing.annotation_types.bbox.bbox
SingleBBox
p120
(dp121
g3
Nsg4
F0.06396063960639604
sg5
I131
sg6
F0.5
sg7
F0.01292423046566693
sg8
F0.45264452644526454
sg9
F0.03567035670356702
sg10
F0.6866201995353287
sg11
Nsba(icrowdsourcing.annotation_types.bbox.bbox
SingleBBox
p122
(dp123
g3
Nsg4
F0.99921875
sg5
I505
sg6
F0.5
sg7
F0.04982241515390687
sg8
F0.45264452644526443
sg9
F0.9483394833948342
sg10
F0.7478474784747847
sg11
Nsba(icrowdsourcing.annotation_types.bbox.bbox
SingleBBox
p124
(dp125
g3
Nsg4
F0.939729397293973
sg5
I170
sg6
F0.5
sg7
F0.016771902131018153
sg8
F0.47451141178078443
sg9
F0.8991389913899139
sg10
F0.7259805931392647
sg11
Nsba(icrowdsourcing.annotation_types.bbox.bbox
SingleBBox
p126
(dp127
g3
Nsg4
F0.908979089790898
sg5
I175
sg6
F0.5
sg7
F0.017265193370165747
sg8
F0.46795134618012846
sg9
F0.8671586715867161
sg10
F0.7128604619379527
sg11
Nsba(icrowdsourcing.annotation_types.bbox.bbox
SingleBBox
p128
(dp129
g3
Nsg4
F0.5928659286592864
sg5
I102
sg6
F0.5
sg7
F0.010063141278610892
sg8
F0.46576465764657654
sg9
F0.5276752767527675
sg10
F0.7172338390050568
sg11
Nsba(icrowdsourcing.annotation_types.bbox.bbox
SingleBBox
p130
(dp131
g3
Nsg4
F0.9659585952758789
sg5
I330
sg6
F0.5
sg7
F0.03255722178374112
sg8
F0.43572984749455357
sg9
F0.8973311442954867
sg10
F0.6840958605664489
sg11
Nsba(icrowdsourcing.annotation_types.bbox.bbox
SingleBBox
p132
(dp133
g3
Nsg4
F0.8905289052890529
sg5
I89
sg6
F0.5
sg7
F0.00878058405682715
sg8
F0.44171108377750445
sg9
F0.8437884378843789
sg10
F0.6844335110017766
sg11
Nsba(icrowdsourcing.annotation_types.bbox.bbox
SingleBBox
p134
(dp135
g3
Nsg4
F0.9316448697856827
sg5
I111
sg6
F0.5
sg7
F0.010951065509076558
sg8
F0.3943355119825709
sg9
F0.8421840854719573
sg10
F0.6862745098039217
sg11
Nsba(icrowdsourcing.annotation_types.bbox.bbox
SingleBBox
p136
(dp137
g3
Nsg4
F0.017220172201722006
sg5
I139
sg6
F0.5
sg7
F0.013713496448303077
sg8
F0.48107147738144046
sg9
F0.0
sg10
F0.6997403307366407
sg11
Nsba(icrowdsourcing.annotation_types.bbox.bbox
SingleBBox
p138
(dp139
g3
Nsg4
F0.4993849938499384
sg5
I141
sg6
F0.5
sg7
F0.013910812943962115
sg8
F0.44171108377750445
sg9
F0.41697416974169743
sg10
F0.7434741014076808
sg11
Nsba(icrowdsourcing.annotation_types.bbox.bbox
SingleBBox
p140
(dp141
g3
Nsg4
F0.5768757687576875
sg5
I133
sg6
F0.5
sg7
F0.013121546961325966
sg8
F0.46795134618012846
sg9
F0.4747847478474784
sg10
F0.8593685936859369
sg11
Nsba(icrowdsourcing.annotation_types.bbox.bbox
SingleBBox
p142
(dp143
g3
Nsg4
F0.7232472324723247
sg5
I90
sg6
F0.5
sg7
F0.008879242304656669
sg8
F0.4329643296432964
sg9
F0.47232472324723246
sg10
F0.9643296432964329
sg11
Nsba(icrowdsourcing.annotation_types.bbox.bbox
SingleBBox
p144
(dp145
g3
Nsg4
F0.4354243542435424
sg5
I224
sg6
F0.5
sg7
F0.022099447513812154
sg8
F0.43077764110974454
sg9
F0.3025830258302583
sg10
F0.7631542982096488
sg11
Nsba(icrowdsourcing.annotation_types.bbox.bbox
SingleBBox
p146
(dp147
g3
Nsg4
F0.41082410824108245
sg5
I134
sg6
F0.5
sg7
F0.013220205209155485
sg8
F0.44389777231105637
sg9
F0.3357933579335793
sg10
F0.7303539702063688
sg11
Nsba(icrowdsourcing.annotation_types.bbox.bbox
SingleBBox
p148
(dp149
g3
Nsg4
F0.5596555965559655
sg5
I1
sg6
F0.5
sg7
F9.865824782951855e-05
sg8
F0.45045783791171246
sg9
F0.5436654366543665
sg10
F0.49200492004920043
sg11
Nsba(icrowdsourcing.annotation_types.bbox.bbox
SingleBBox
p150
(dp151
g3
Nsg4
F0.6236162361623616
sg5
I248
sg6
F0.5
sg7
F0.0244672454617206
sg8
F0.4482711493781605
sg9
F0.5092250922509226
sg10
F0.8637419707530409
sg11
Nsba(icrowdsourcing.annotation_types.bbox.bbox
SingleBBox
p152
(dp153
g3
Nsg4
F0.6789667896678967
sg5
I1
sg6
F0.5
sg7
F9.865824782951855e-05
sg8
F0.45920459204592057
sg9
F0.6592865928659286
sg10
F0.5094984283176165
sg11
Nsba(icrowdsourcing.annotation_types.bbox.bbox
SingleBBox
p154
(dp155
g3
Nsg4
F0.9421894218942188
sg5
I1
sg6
F0.5
sg7
F9.865824782951855e-05
sg8
F0.46139128057947243
sg9
F0.9212792127921279
sg10
F0.4941916085827526
sg11
Nsba(icrowdsourcing.annotation_types.bbox.bbox
SingleBBox
p156
(dp157
g3
Nsg4
F0.7101167315175099
sg5
I1
sg6
F0.5
sg7
F9.865824782951855e-05
sg8
F0.4703847816688284
sg9
F0.6381322957198444
sg10
F0.49805447470817116
sg11
Nsba(icrowdsourcing.annotation_types.bbox.bbox
SingleBBox
p158
(dp159
g3
Nsg4
F0.041938987432741624
sg5
I38
sg6
F0.5
sg7
F0.003749013417521705
sg8
F0.5032679738562094
sg9
F0.018654673707251428
sg10
F0.6492374727668846
sg11
Nsba(icrowdsourcing.annotation_types.bbox.bbox
SingleBBox
p160
(dp161
g3
Nsg4
F0.99921875
sg5
I271
sg6
F0.5
sg7
F0.026736385161799527
sg8
F0.40235069017356834
sg9
F0.968019680196802
sg10
F0.6866201995353287
sg11
Nsba(icrowdsourcing.annotation_types.bbox.bbox
SingleBBox
p162
(dp163
g3
Nsg4
F0.99921875
sg5
I2
sg6
F0.5
sg7
F0.0001973164956590371
sg8
F0.6581932485991527
sg9
F0.9889298892988929
sg10
F0.765340986743201
sg11
Nsba(icrowdsourcing.annotation_types.bbox.bbox
SingleBBox
p164
(dp165
g3
Nsg4
F0.99921875
sg5
I1
sg6
F0.5
sg7
F9.865824782951855e-05
sg8
F0.7172338390050568
sg9
F0.9840098400984012
sg10
F0.7653409867432006
sg11
Nsba(icrowdsourcing.annotation_types.bbox.bbox
SingleBBox
p166
(dp167
g3
Nsg4
F0.9975399753997539
sg5
I1
sg6
F0.5
sg7
F9.865824782951855e-05
sg8
F0.7128604619379527
sg9
F0.9889298892988929
sg10
F0.7675276752767527
sg11
Nsba(icrowdsourcing.annotation_types.bbox.bbox
SingleBBox
p168
(dp169
g3
Nsg4
F0.46740467404674046
sg5
I80
sg6
F0.5
sg7
F0.007892659826361484
sg8
F0.3957906245729125
sg9
F0.21771217712177124
sg10
F0.9986111111111111
sg11
Nsba(icrowdsourcing.annotation_types.bbox.bbox
SingleBBox
p170
(dp171
g3
Nsg4
F0.2804428044280443
sg5
I193
sg6
F0.5
sg7
F0.019041041831097078
sg8
F0.3957906245729125
sg9
F0.20172201722017222
sg10
F0.7587809211425448
sg11
Nsba(icrowdsourcing.annotation_types.bbox.bbox
SingleBBox
p172
(dp173
g3
Nsg4
F0.32472324723247237
sg5
I125
sg6
F0.5
sg7
F0.012332280978689818
sg8
F0.3608036080360803
sg9
F0.17958179581795816
sg10
F0.8090747574142407
sg11
Nsba(icrowdsourcing.annotation_types.bbox.bbox
SingleBBox
p174
(dp175
g3
Nsg4
F0.44157441574415746
sg5
I153
sg6
F0.5
sg7
F0.015094711917916339
sg8
F0.47451141178078443
sg9
F0.35793357933579334
sg10
F0.7828344950116167
sg11
Nsba(icrowdsourcing.annotation_types.bbox.bbox
SingleBBox
p176
(dp177
g3
Nsg4
F0.6137761377613776
sg5
I109
sg6
F0.5
sg7
F0.010753749013417522
sg8
F0.3323766570999044
sg9
F0.47232472324723246
sg10
F0.988383217165505
sg11
Nsba(icrowdsourcing.annotation_types.bbox.bbox
SingleBBox
p178
(dp179
g3
Nsg4
F0.6100861008610087
sg5
I105
sg6
F0.5
sg7
F0.010359116022099447
sg8
F0.3957906245729125
sg9
F0.5498154981549815
sg10
F0.8221948886155528
sg11
Nsba(icrowdsourcing.annotation_types.bbox.bbox
SingleBBox
p180
(dp181
g3
Nsg4
F0.6206225680933852
sg5
I2
sg6
F0.5
sg7
F0.0001973164956590371
sg8
F0.37354085603112835
sg9
F0.5680933852140078
sg10
F0.9684392563769996
sg11
Nsba(icrowdsourcing.annotation_types.bbox.bbox
SingleBBox
p182
(dp183
g3
Nsg4
F0.08241082410824109
sg5
I195
sg6
F0.5
sg7
F0.019238358326756116
sg8
F0.47451141178078443
sg9
F0.04551045510455102
sg10
F0.6997403307366407
sg11
Nsba(icrowdsourcing.annotation_types.bbox.bbox
SingleBBox
p184
(dp185
g3
Nsg4
F0.2078720787207872
sg5
I194
sg6
F0.5
sg7
F0.019139700078926597
sg8
F0.4110974443077764
sg9
F0.13776137761377613
sg10
F0.8462484624846248
sg11
Nsba(icrowdsourcing.annotation_types.bbox.bbox
SingleBBox
p186
(dp187
g3
Nsg4
F0.6986469864698647
sg5
I106
sg6
F0.5
sg7
F0.010457774269928966
sg8
F0.45045783791171234
sg9
F0.6223862238622386
sg10
F0.7194205275386086
sg11
Nsba(icrowdsourcing.annotation_types.bbox.bbox
SingleBBox
p188
(dp189
g3
Nsg4
F0.5707257072570726
sg5
I1
sg6
F0.5
sg7
F9.865824782951855e-05
sg8
F0.45920459204592057
sg9
F0.5510455104551045
sg10
F0.5094984283176165
sg11
Nsba(icrowdsourcing.annotation_types.bbox.bbox
SingleBBox
p190
(dp191
g3
Nsg4
F0.8905289052890527
sg5
I1
sg6
F0.5
sg7
F9.865824782951855e-05
sg8
F0.4635779691130245
sg9
F0.8782287822878228
sg10
F0.5094984283176165
sg11
Nsba(icrowdsourcing.annotation_types.bbox.bbox
SingleBBox
p192
(dp193
g3
Nsg4
F0.5778210116731517
sg5
I1
sg6
F0.5
sg7
F9.865824782951855e-05
sg8
F0.456549935149157
sg9
F0.5369649805447472
sg10
F0.5015131863380891
sg11
Nsba(icrowdsourcing.annotation_types.bbox.bbox
SingleBBox
p194
(dp195
g3
Nsg4
F0.9027237354085603
sg5
I1
sg6
F0.5
sg7
F9.865824782951855e-05
sg8
F0.46692607003891057
sg9
F0.8677042801556422
sg10
F0.4945957630782533
sg11
Nsba(icrowdsourcing.annotation_types.bbox.bbox
SingleBBox
p196
(dp197
g3
Nsg4
F0.6789667896678967
sg5
I152
sg6
F0.5
sg7
F0.01499605367008682
sg8
F0.4395243952439524
sg9
F0.5965559655596555
sg10
F0.8331283312833129
sg11
Nsba(icrowdsourcing.annotation_types.bbox.bbox
SingleBBox
p198
(dp199
g3
Nsg4
F0.7552275522755227
sg5
I196
sg6
F0.5
sg7
F0.019337016574585635
sg8
F0.4635779691130245
sg9
F0.6334563345633455
sg10
F0.8528085280852808
sg11
Nsba(icrowdsourcing.annotation_types.bbox.bbox
SingleBBox
p200
(dp201
g3
Nsg4
F0.6629766297662977
sg5
I35
sg6
F0.5
sg7
F0.003453038674033149
sg8
F0.4460844608446084
sg9
F0.6211562115621156
sg10
F0.8221948886155528
sg11
Nsba(icrowdsourcing.annotation_types.bbox.bbox
SingleBBox
p202
(dp203
g3
Nsg4
F0.7244772447724477
sg5
I59
sg6
F0.5
sg7
F0.005820836621941594
sg8
F0.4482711493781605
sg9
F0.6703567035670357
sg10
F0.8571819051523849
sg11
Nsba(icrowdsourcing.annotation_types.bbox.bbox
SingleBBox
p204
(dp205
g3
Nsg4
F0.33087330873308735
sg5
I110
sg6
F0.5
sg7
F0.010852407261247041
sg8
F0.47232472324723257
sg9
F0.2693726937269373
sg10
F0.7456607899412326
sg11
Nsba(icrowdsourcing.annotation_types.bbox.bbox
SingleBBox
p206
(dp207
g3
Nsg4
F0.08856088560885607
sg5
I7
sg6
F0.5
sg7
F0.0006906077348066298
sg8
F0.4832581659149925
sg9
F0.06765067650676504
sg10
F0.5619789531228645
sg11
Nsba(icrowdsourcing.annotation_types.bbox.bbox
SingleBBox
p208
(dp209
g3
Nsg4
F0.9975399753997539
sg5
I2
sg6
F0.5
sg7
F0.0001973164956590371
sg8
F0.4832581659149925
sg9
F0.9950799507995083
sg10
F0.5510455104551045
sg11
Nsba(icrowdsourcing.annotation_types.bbox.bbox
SingleBBox
p210
(dp211
g3
Nsg4
F0.061500615006150026
sg5
I2
sg6
F0.5
sg7
F0.0001973164956590371
sg8
F0.4941916085827525
sg9
F0.04920049200492003
sg10
F0.5422987563208965
sg11
Nsba(icrowdsourcing.annotation_types.bbox.bbox
SingleBBox
p212
(dp213
g3
Nsg4
F0.09717097170971707
sg5
I11
sg6
F0.5
sg7
F0.001085240726124704
sg8
F0.45483121497881646
sg9
F0.07134071340713403
sg10
F0.5597922645893125
sg11
Nsba(icrowdsourcing.annotation_types.bbox.bbox
SingleBBox
p214
(dp215
g3
Nsg4
F0.061500615006150026
sg5
I1
sg6
F0.5
sg7
F9.865824782951855e-05
sg8
F0.5073117397840644
sg9
F0.05289052890528902
sg10
F0.5379253792537925
sg11
Nsba(icrowdsourcing.annotation_types.bbox.bbox
SingleBBox
p216
(dp217
g3
Nsg4
F0.06765067650676504
sg5
I1
sg6
F0.5
sg7
F9.865824782951855e-05
sg8
F0.5094984283176165
sg9
F0.061500615006150026
sg10
F0.5357386907202405
sg11
Nsba(icrowdsourcing.annotation_types.bbox.bbox
SingleBBox
p218
(dp219
g3
Nsg4
F0.99921875
sg5
I1
sg6
F0.5
sg7
F9.865824782951855e-05
sg8
F0.4941916085827526
sg9
F0.9901599015990158
sg10
F0.5444854448544485
sg11
Nsba(icrowdsourcing.annotation_types.bbox.bbox
SingleBBox
p220
(dp221
g3
Nsg4
F0.985239852398524
sg5
I1
sg6
F0.5
sg7
F9.865824782951855e-05
sg8
F0.48763154298209643
sg9
F0.9778597785977862
sg10
F0.5160584939182725
sg11
Nsba(icrowdsourcing.annotation_types.bbox.bbox
SingleBBox
p222
(dp223
g3
Nsg4
F0.1266912669126691
sg5
I23
sg6
F0.5
sg7
F0.0022691397000789266
sg8
F0.46139128057947243
sg9
F0.03567035670356702
sg10
F0.6188328549952167
sg11
Nsba(icrowdsourcing.annotation_types.bbox.bbox
SingleBBox
p224
(dp225
g3
Nsg4
F0.9798234552332913
sg5
I1
sg6
F0.5
sg7
F9.865824782951855e-05
sg8
F0.48842930108939336
sg9
F0.9754350044086932
sg10
F0.5215636685363249
sg11
Nsba(icrowdsourcing.annotation_types.bbox.bbox
SingleBBox
p226
(dp227
g3
Nsg4
F0.06968471531910073
sg5
I6
sg6
F0.5
sg7
F0.0005919494869771113
sg8
F0.47672690238808324
sg9
F0.05433795250679776
sg10
F0.576152445004904
sg11
Nsba(icrowdsourcing.annotation_types.bbox.bbox
SingleBBox
p228
(dp229
g3
Nsg4
F0.8868388683886839
sg5
I5
sg6
F0.5
sg7
F0.0004932912391475928
sg8
F0.45264452644526454
sg9
F0.8548585485854858
sg10
F0.5160584939182725
sg11
Nsba(icrowdsourcing.annotation_types.bbox.bbox
SingleBBox
p230
(dp231
g3
Nsg4
F0.8782287822878228
sg5
I2
sg6
F0.5
sg7
F0.0001973164956590371
sg8
F0.4526445264452645
sg9
F0.8683886838868389
sg10
F0.5269919365860325
sg11
Nsba(icrowdsourcing.annotation_types.bbox.bbox
SingleBBox
p232
(dp233
g3
Nsg4
F0.98769987699877
sg5
I219
sg6
F0.5
sg7
F0.021606156274664563
sg8
F0.4766981003143365
sg9
F0.9532595325953259
sg10
F0.6625666256662568
sg11
Nsba(icrowdsourcing.annotation_types.bbox.bbox
SingleBBox
p234
(dp235
g3
Nsg4
F0.2767527675276753
sg5
I55
sg6
F0.5
sg7
F0.0054262036306235205
sg8
F0.43733770671040034
sg9
F0.22140221402214025
sg10
F0.6909935766024327
sg11
Nsba(icrowdsourcing.annotation_types.bbox.bbox
SingleBBox
p236
(dp237
g3
Nsg4
F0.20172201722017222
sg5
I217
sg6
F0.5
sg7
F0.021408839779005526
sg8
F0.41765750990843253
sg9
F0.06888068880688804
sg10
F0.8309416427497608
sg11
Nsba(icrowdsourcing.annotation_types.bbox.bbox
SingleBBox
p238
(dp239
g3
Nsg4
F0.8610086100861007
sg5
I94
sg6
F0.5
sg7
F0.009273875295974744
sg8
F0.43733770671040034
sg9
F0.8191881918819188
sg10
F0.7762744294109608
sg11
Nsba(icrowdsourcing.annotation_types.bbox.bbox
SingleBBox
p240
(dp241
g3
Nsg4
F0.9225092250922511
sg5
I268
sg6
F0.5
sg7
F0.02644041041831097
sg8
F0.45483121497881646
sg9
F0.8314883148831488
sg10
F0.7784611179445128
sg11
Nsba(icrowdsourcing.annotation_types.bbox.bbox
SingleBBox
p242
(dp243
g3
Nsg4
F0.9029003783102144
sg5
I130
sg6
F0.5
sg7
F0.012825572217837412
sg8
F0.4242454594017095
sg9
F0.8511979823455231
sg10
F0.8008742950469384
sg11
Nsba(icrowdsourcing.annotation_types.bbox.bbox
SingleBBox
p244
(dp245
g3
Nsg4
F0.8745387453874539
sg5
I122
sg6
F0.5
sg7
F0.012036306235201263
sg8
F0.4482711493781605
sg9
F0.8339483394833949
sg10
F0.7216072160721607
sg11
Nsba(icrowdsourcing.annotation_types.bbox.bbox
SingleBBox
p246
(dp247
g3
Nsg4
F0.8241082410824105
sg5
I1
sg6
F0.5
sg7
F9.865824782951855e-05
sg8
F0.4482711493781605
sg9
F0.8167281672816727
sg10
F0.5182451824518245
sg11
Nsba(icrowdsourcing.annotation_types.bbox.bbox
SingleBBox
p248
(dp249
g3
Nsg4
F0.8277982779827798
sg5
I1
sg6
F0.5
sg7
F9.865824782951855e-05
sg8
F0.4242175755090885
sg9
F0.8130381303813039
sg10
F0.5466721333880006
sg11
Nsba(icrowdsourcing.annotation_types.bbox.bbox
SingleBBox
p250
(dp251
g3
Nsg4
F0.4095940959409594
sg5
I165
sg6
F0.5
sg7
F0.01627861089187056
sg8
F0.41547082137488045
sg9
F0.2742927429274292
sg10
F0.959956266229329
sg11
Nsba(icrowdsourcing.annotation_types.bbox.bbox
SingleBBox
p252
(dp253
g3
Nsg4
F0.955719557195572
sg5
I199
sg6
F0.5
sg7
F0.01963299131807419
sg8
F0.4657646576465765
sg9
F0.9188191881918819
sg10
F0.7041137078037447
sg11
Nsba(icrowdsourcing.annotation_types.bbox.bbox
SingleBBox
p254
(dp255
g3
Nsg4
F0.7810578105781059
sg5
I168
sg6
F0.5
sg7
F0.016574585635359115
sg8
F0.4592045920459204
sg9
F0.6752767527675276
sg10
F0.7150471504715047
sg11
Nsba(icrowdsourcing.annotation_types.bbox.bbox
SingleBBox
p256
(dp257
g3
Nsg4
F0.5696895327556338
sg5
I1
sg6
F0.5
sg7
F9.865824782951855e-05
sg8
F0.5110565110565111
sg9
F0.5254634885295896
sg10
F0.653016653016653
sg11
Nsba(icrowdsourcing.annotation_types.bbox.bbox
SingleBBox
p258
(dp259
g3
Nsg4
F0.985239852398524
sg5
I258
sg6
F0.5
sg7
F0.025453827940015786
sg8
F0.4723247232472324
sg9
F0.9225092250922511
sg10
F0.6713133798004647
sg11
Nsba(icrowdsourcing.annotation_types.bbox.bbox
SingleBBox
p260
(dp261
g3
Nsg4
F0.99921875
sg5
I242
sg6
F0.5
sg7
F0.02387529597474349
sg8
F0.4701380347136805
sg9
F0.9741697416974169
sg10
F0.7587809211425448
sg11
Nsba(icrowdsourcing.annotation_types.bbox.bbox
SingleBBox
p262
(dp263
g3
Nsg4
F0.8019680196801968
sg5
I64
sg6
F0.5
sg7
F0.006314127861089187
sg8
F0.42203088697553637
sg9
F0.7207872078720786
sg10
F0.6669400027333606
sg11
Nsba(icrowdsourcing.annotation_types.bbox.bbox
SingleBBox
p264
(dp265
g3
Nsg4
F0.40713407134071344
sg5
I2
sg6
F0.5
sg7
F0.0001973164956590371
sg8
F0.4482711493781605
sg9
F0.3837638376383764
sg10
F0.5357386907202406
sg11
Nsba(icrowdsourcing.annotation_types.bbox.bbox
SingleBBox
p266
(dp267
g3
Nsg4
F0.2907134972366632
sg5
I45
sg6
F0.5
sg7
F0.004439621152328334
sg8
F0.4945533769063181
sg9
F0.23924290900136908
sg10
F0.7145969498910675
sg11
Nsba(icrowdsourcing.annotation_types.bbox.bbox
SingleBBox
p268
(dp269
g3
Nsg4
F0.8314883148831488
sg5
I19
sg6
F0.5
sg7
F0.0018745067087608525
sg8
F0.48107147738144046
sg9
F0.7613776137761377
sg10
F0.6319529861965285
sg11
Nsba(icrowdsourcing.annotation_types.bbox.bbox
SingleBBox
p270
(dp271
g3
Nsg4
F0.08610086100861007
sg5
I40
sg6
F0.5
sg7
F0.003946329913180742
sg8
F0.4460844608446084
sg9
F0.04674046740467404
sg10
F0.5729123957906246
sg11
Nsba(icrowdsourcing.annotation_types.bbox.bbox
SingleBBox
p272
(dp273
g3
Nsg4
F0.47232472324723246
sg5
I83
sg6
F0.5
sg7
F0.008188634569850039
sg8
F0.5007516741834086
sg9
F0.38376383763837635
sg10
F0.8637419707530409
sg11
Nsba(icrowdsourcing.annotation_types.bbox.bbox
SingleBBox
p274
(dp275
g3
Nsg4
F0.99921875
sg5
I55
sg6
F0.5
sg7
F0.0054262036306235205
sg8
F0.5729123957906246
sg9
F0.961869618696187
sg10
F0.8047013803471368
sg11
Nsba(icrowdsourcing.annotation_types.bbox.bbox
SingleBBox
p276
(dp277
g3
Nsg4
F0.7846772477433488
sg5
I1
sg6
F0.5
sg7
F9.865824782951855e-05
sg8
F0.521976521976522
sg9
F0.7490507121168131
sg10
F0.6224406224406225
sg11
Nsba(icrowdsourcing.annotation_types.bbox.bbox
SingleBBox
p278
(dp279
g3
Nsg4
F0.979089790897909
sg5
I139
sg6
F0.5
sg7
F0.013713496448303077
sg8
F0.4592045920459204
sg9
F0.9434194341943417
sg10
F0.6428864288642886
sg11
Nsba(icrowdsourcing.annotation_types.bbox.bbox
SingleBBox
p280
(dp281
g3
Nsg4
F0.04674046740467404
sg5
I9
sg6
F0.5
sg7
F0.000887924230465667
sg8
F0.45483121497881646
sg9
F0.02583025830258301
sg10
F0.5488588219215524
sg11
Nsba(icrowdsourcing.annotation_types.bbox.bbox
SingleBBox
p282
(dp283
g3
Nsg4
F0.05289052890528902
sg5
I13
sg6
F0.5
sg7
F0.001282557221783741
sg8
F0.4395243952439524
sg9
F0.018450184501845
sg10
F0.5379253792537925
sg11
Nsba(icrowdsourcing.annotation_types.bbox.bbox
SingleBBox
p284
(dp285
g3
Nsg4
F0.07749077490774905
sg5
I88
sg6
F0.5
sg7
F0.008681925808997633
sg8
F0.4635779691130245
sg9
F0.040590405904059025
sg10
F0.6188328549952167
sg11
Nsba(icrowdsourcing.annotation_types.bbox.bbox
SingleBBox
p286
(dp287
g3
Nsg4
F0.9692496924969249
sg5
I249
sg6
F0.5
sg7
F0.02456590370955012
sg8
F0.46576465764657654
sg9
F0.91389913899139
sg10
F0.7872078720787209
sg11
Nsba(icrowdsourcing.annotation_types.bbox.bbox
SingleBBox
p288
(dp289
g3
Nsg4
F0.029520295202952008
sg5
I9
sg6
F0.5
sg7
F0.000887924230465667
sg8
F0.4657646576465765
sg9
F0.008610086100860993
sg10
F0.5291786251195846
sg11
Nsba(icrowdsourcing.annotation_types.bbox.bbox
SingleBBox
p290
(dp291
g3
Nsg4
F0.06273062730627303
sg5
I3
sg6
F0.5
sg7
F0.00029597474348855567
sg8
F0.46139128057947243
sg9
F0.05289052890528902
sg10
F0.48763154298209643
sg11
Nsba(icrowdsourcing.annotation_types.bbox.bbox
SingleBBox
p292
(dp293
g3
Nsg4
F0.050430504305043033
sg5
I1
sg6
F0.5
sg7
F9.865824782951855e-05
sg8
F0.4635779691130245
sg9
F0.04428044280442802
sg10
F0.48981823151564846
sg11
Nsba(icrowdsourcing.annotation_types.bbox.bbox
SingleBBox
p294
(dp295
g3
Nsg4
F0.99921875
sg5
I4
sg6
F0.5
sg7
F0.0003946329913180742
sg8
F0.4482711493781605
sg9
F0.9901599015990159
sg10
F0.5532321989886566
sg11
Nsba(icrowdsourcing.annotation_types.bbox.bbox
SingleBBox
p296
(dp297
g3
Nsg4
F0.99921875
sg5
I23
sg6
F0.5
sg7
F0.0022691397000789266
sg8
F0.43077764110974437
sg9
F0.976629766297663
sg10
F0.5466721333880006
sg11
Nsba(icrowdsourcing.annotation_types.bbox.bbox
SingleBBox
p298
(dp299
g3
Nsg4
F0.024600246002460004
sg5
I6
sg6
F0.5
sg7
F0.0005919494869771113
sg8
F0.4351510181768485
sg9
F0.0
sg10
F0.5335520021866885
sg11
Nsba(icrowdsourcing.annotation_types.bbox.bbox
SingleBBox
p300
(dp301
g3
Nsg4
F0.04305043050430503
sg5
I131
sg6
F0.5
sg7
F0.01292423046566693
sg8
F0.40672406724067245
sg9
F0.00615006150061499
sg10
F0.6166461664616646
sg11
Nsba(icrowdsourcing.annotation_types.bbox.bbox
SingleBBox
p302
(dp303
g3
Nsg4
F0.99921875
sg5
I143
sg6
F0.5
sg7
F0.014108129439621152
sg8
F0.4242175755090885
sg9
F0.955719557195572
sg10
F0.6166461664616646
sg11
Nsba(icrowdsourcing.annotation_types.bbox.bbox
SingleBBox
p304
(dp305
g3
Nsg4
F0.02583025830258301
sg5
I1
sg6
F0.5
sg7
F9.865824782951855e-05
sg8
F0.4766981003143365
sg9
F0.019680196801968003
sg10
F0.5204318709853766
sg11
Nsba(icrowdsourcing.annotation_types.bbox.bbox
SingleBBox
p306
(dp307
g3
Nsg4
F0.05535055350553504
sg5
I1
sg6
F0.5
sg7
F9.865824782951855e-05
sg8
F0.46795134618012846
sg9
F0.04920049200492003
sg10
F0.48107147738144046
sg11
Nsba(icrowdsourcing.annotation_types.bbox.bbox
SingleBBox
p308
(dp309
g3
Nsg4
F0.04775535323731084
sg5
I1
sg6
F0.5
sg7
F9.865824782951855e-05
sg8
F0.4591957446121445
sg9
F0.04117275396782394
sg10
F0.504032510760386
sg11
Nsba(icrowdsourcing.annotation_types.bbox.bbox
SingleBBox
p310
(dp311
g3
Nsg4
F0.38007380073800734
sg5
I118
sg6
F0.5
sg7
F0.011641673243883188
sg8
F0.44389777231105654
sg9
F0.3259532595325953
sg10
F0.7653409867432008
sg11
Nsba(icrowdsourcing.annotation_types.bbox.bbox
SingleBBox
p312
(dp313
g3
Nsg4
F0.7724477244772447
sg5
I141
sg6
F0.5
sg7
F0.013910812943962115
sg8
F0.40235069017356834
sg9
F0.6629766297662977
sg10
F0.951209512095121
sg11
Nsba(icrowdsourcing.annotation_types.bbox.bbox
SingleBBox
p314
(dp315
g3
Nsg4
F0.6789667896678967
sg5
I219
sg6
F0.5
sg7
F0.021606156274664563
sg8
F0.4242175755090885
sg9
F0.5338253382533825
sg10
F0.8790487904879049
sg11
Nsba(icrowdsourcing.annotation_types.bbox.bbox
SingleBBox
p316
(dp317
g3
Nsg4
F0.5830258302583026
sg5
I17
sg6
F0.5
sg7
F0.0016771902131018153
sg8
F0.46576465764657654
sg9
F0.5436654366543665
sg10
F0.6691266912669126
sg11
Nsba(icrowdsourcing.annotation_types.bbox.bbox
SingleBBox
p318
(dp319
g3
Nsg4
F0.6728167281672817
sg5
I13
sg6
F0.5
sg7
F0.001282557221783741
sg8
F0.41765750990843253
sg9
F0.6260762607626076
sg10
F0.5401120677873446
sg11
Nsba(icrowdsourcing.annotation_types.bbox.bbox
SingleBBox
p320
(dp321
g3
Nsg4
F0.4698646986469866
sg5
I1
sg6
F0.5
sg7
F9.865824782951855e-05
sg8
F0.4373377067104005
sg9
F0.45633456334563344
sg10
F0.4635779691130245
sg11
Nsba(icrowdsourcing.annotation_types.bbox.bbox
SingleBBox
p322
(dp323
g3
Nsg4
F0.4821648216482165
sg5
I1
sg6
F0.5
sg7
F9.865824782951855e-05
sg8
F0.42203088697553637
sg9
F0.4428044280442805
sg10
F0.49200492004920043
sg11
Nsba(icrowdsourcing.annotation_types.bbox.bbox
SingleBBox
p324
(dp325
g3
Nsg4
F0.5375153751537514
sg5
I162
sg6
F0.5
sg7
F0.015982636148382006
sg8
F0.39360393603936045
sg9
F0.3960639606396064
sg10
F0.9986111111111111
sg11
Nsba(icrowdsourcing.annotation_types.bbox.bbox
SingleBBox
p326
(dp327
g3
Nsg4
F0.9249692496924968
sg5
I1
sg6
F0.5
sg7
F9.865824782951855e-05
sg8
F0.45045783791171234
sg9
F0.9052890528905291
sg10
F0.4963782971163045
sg11
Nsba(icrowdsourcing.annotation_types.bbox.bbox
SingleBBox
p328
(dp329
g3
Nsg4
F0.1353013530135301
sg5
I2
sg6
F0.5
sg7
F0.0001973164956590371
sg8
F0.4701380347136805
sg9
F0.11562115621156208
sg10
F0.5182451824518245
sg11
Nsba(icrowdsourcing.annotation_types.bbox.bbox
SingleBBox
p330
(dp331
g3
Nsg4
F0.44772447724477243
sg5
I1
sg6
F0.5
sg7
F9.865824782951855e-05
sg8
F0.47232472324723246
sg9
F0.4317343173431734
sg10
F0.5226185595189285
sg11
Nsba(icrowdsourcing.annotation_types.bbox.bbox
SingleBBox
p332
(dp333
g3
Nsg4
F0.14396887159533076
sg5
I1
sg6
F0.5
sg7
F9.865824782951855e-05
sg8
F0.4669260700389105
sg9
F0.1108949416342413
sg10
F0.5015131863380891
sg11
Nsba(icrowdsourcing.annotation_types.bbox.bbox
SingleBBox
p334
(dp335
g3
Nsg4
F0.4591439688715953
sg5
I1
sg6
F0.5
sg7
F9.865824782951855e-05
sg8
F0.47038478166882836
sg9
F0.42023346303501957
sg10
F0.5153480328577604
sg11
Nsba(icrowdsourcing.annotation_types.bbox.bbox
SingleBBox
p336
(dp337
g3
Nsg4
F0.9286592865928659
sg5
I130
sg6
F0.5
sg7
F0.012825572217837412
sg8
F0.3542435424354244
sg9
F0.7970479704797049
sg10
F0.8943556102227689
sg11
Nsba(icrowdsourcing.annotation_types.bbox.bbox
SingleBBox
p338
(dp339
g3
Nsg4
F0.14760147601476015
sg5
I123
sg6
F0.5
sg7
F0.012134964483030782
sg8
F0.4832581659149925
sg9
F0.0996309963099631
sg10
F0.6844335110017766
sg11
Nsba(icrowdsourcing.annotation_types.bbox.bbox
SingleBBox
p340
(dp341
g3
Nsg4
F0.2927429274292742
sg5
I5
sg6
F0.5
sg7
F0.0004932912391475928
sg8
F0.45264452644526443
sg9
F0.27921279212792127
sg10
F0.5248052480524805
sg11
Nsba(icrowdsourcing.annotation_types.bbox.bbox
SingleBBox
p342
(dp343
g3
Nsg4
F0.03198031980319802
sg5
I2
sg6
F0.5
sg7
F0.0001973164956590371
sg8
F0.47451141178078443
sg9
F0.02091020910209101
sg10
F0.5226185595189287
sg11
Nsba(icrowdsourcing.annotation_types.bbox.bbox
SingleBBox
p344
(dp345
g3
Nsg4
F0.06888068880688805
sg5
I5
sg6
F0.5
sg7
F0.0004932912391475928
sg8
F0.46795134618012846
sg9
F0.05535055350553504
sg10
F0.5204318709853765
sg11
Nsba(icrowdsourcing.annotation_types.bbox.bbox
SingleBBox
p346
(dp347
g3
Nsg4
F0.15990159901599013
sg5
I3
sg6
F0.5
sg7
F0.00029597474348855567
sg8
F0.46795134618012846
sg9
F0.14514145141451412
sg10
F0.5248052480524805
sg11
Nsba(icrowdsourcing.annotation_types.bbox.bbox
SingleBBox
p348
(dp349
g3
Nsg4
F0.03444034440344401
sg5
I12
sg6
F0.5
sg7
F0.0011838989739542227
sg8
F0.4635779691130245
sg9
F0.017220172201722003
sg10
F0.5269919365860324
sg11
Nsba(icrowdsourcing.annotation_types.bbox.bbox
SingleBBox
p350
(dp351
g3
Nsg4
F0.15744157441574416
sg5
I1
sg6
F0.5
sg7
F9.865824782951855e-05
sg8
F0.4592045920459204
sg9
F0.14145141451414514
sg10
F0.5597922645893125
sg11
Nsba(icrowdsourcing.annotation_types.bbox.bbox
SingleBBox
p352
(dp353
g3
Nsg4
F0.16182712489322587
sg5
I2
sg6
F0.5
sg7
F0.0001973164956590371
sg8
F0.45208845208845205
sg9
F0.1384856015517026
sg10
F0.5088725088725089
sg11
Nsba(icrowdsourcing.annotation_types.bbox.bbox
SingleBBox
p354
(dp355
g3
Nsg4
F0.03529149835759939
sg5
I1
sg6
F0.5
sg7
F9.865824782951855e-05
sg8
F0.45645645645645644
sg9
F0.01932098238708342
sg10
F0.5045045045045045
sg11
Nsba(icrowdsourcing.annotation_types.bbox.bbox
SingleBBox
p356
(dp357
g3
Nsg4
F0.06846103152713257
sg5
I6
sg6
F0.5
sg7
F0.0005919494869771113
sg8
F0.4586404586404586
sg9
F0.05126201432811537
sg10
F0.5088725088725088
sg11
Nsba(icrowdsourcing.annotation_types.bbox.bbox
SingleBBox
p358
(dp359
g3
Nsg4
F0.970479704797048
sg5
I3
sg6
F0.5
sg7
F0.00029597474348855567
sg8
F0.4701380347136805
sg9
F0.955719557195572
sg10
F0.5772857728577285
sg11
Nsba(icrowdsourcing.annotation_types.bbox.bbox
SingleBBox
p360
(dp361
g3
Nsg4
F0.2784585952758788
sg5
I1
sg6
F0.5
sg7
F9.865824782951855e-05
sg8
F0.5010893246187365
sg9
F0.21473310507980042
sg10
F0.6470588235294118
sg11
Nsba(icrowdsourcing.annotation_types.bbox.bbox
SingleBBox
p362
(dp363
g3
Nsg4
F0.99921875
sg5
I14
sg6
F0.5
sg7
F0.0013812154696132596
sg8
F0.4635779691130245
sg9
F0.991389913899139
sg10
F0.6625666256662568
sg11
Nsba(icrowdsourcing.annotation_types.bbox.bbox
SingleBBox
p364
(dp365
g3
Nsg4
F0.25092250922509224
sg5
I9
sg6
F0.5
sg7
F0.000887924230465667
sg8
F0.4460844608446084
sg9
F0.22263222632226326
sg10
F0.5379253792537925
sg11
Nsba(icrowdsourcing.annotation_types.bbox.bbox
SingleBBox
p366
(dp367
g3
Nsg4
F0.24354243542435422
sg5
I1
sg6
F0.5
sg7
F9.865824782951855e-05
sg8
F0.4570179035123684
sg9
F0.23247232472324725
sg10
F0.5335520021866885
sg11
Nsba(icrowdsourcing.annotation_types.bbox.bbox
SingleBBox
p368
(dp369
g3
Nsg4
F0.19557195571955716
sg5
I198
sg6
F0.5
sg7
F0.019534333070244672
sg8
F0.4854448544485444
sg9
F0.13653136531365312
sg10
F0.7172338390050568
sg11
Nsba(icrowdsourcing.annotation_types.bbox.bbox
SingleBBox
p370
(dp371
g3
Nsg4
F0.7503075030750308
sg5
I2
sg6
F0.5
sg7
F0.0001973164956590371
sg8
F0.44171108377750445
sg9
F0.7183271832718328
sg10
F0.5335520021866885
sg11
Nsba(icrowdsourcing.annotation_types.bbox.bbox
SingleBBox
p372
(dp373
g3
Nsg4
F0.7404674046740467
sg5
I1
sg6
F0.5
sg7
F9.865824782951855e-05
sg8
F0.4482711493781605
sg9
F0.7207872078720786
sg10
F0.5204318709853766
sg11
Nsba(icrowdsourcing.annotation_types.bbox.bbox
SingleBBox
p374
(dp375
g3
Nsg4
F0.7343173431734318
sg5
I2
sg6
F0.5
sg7
F0.0001973164956590371
sg8
F0.46139128057947243
sg9
F0.7269372693726937
sg10
F0.5160584939182725
sg11
Nsba(icrowdsourcing.annotation_types.bbox.bbox
SingleBBox
p376
(dp377
g3
Nsg4
F0.08850761488372201
sg5
I39
sg6
F0.5
sg7
F0.0038476716653512233
sg8
F0.40740740740740744
sg9
F0.057870359981761224
sg10
F0.6971677559912854
sg11
Nsba(icrowdsourcing.annotation_types.bbox.bbox
SingleBBox
p378
(dp379
g3
Nsg4
F0.03444034440344401
sg5
I45
sg6
F0.5
sg7
F0.004439621152328334
sg8
F0.46576465764657654
sg9
F0.009840098400983991
sg10
F0.5925925925925927
sg11
Nsba(icrowdsourcing.annotation_types.bbox.bbox
SingleBBox
p380
(dp381
g3
Nsg4
F0.12649781096215337
sg5
I110
sg6
F0.5
sg7
F0.010852407261247041
sg8
F0.46840958605664496
sg9
F0.08483114429548673
sg10
F0.6427015250544663
sg11
Nsba(icrowdsourcing.annotation_types.bbox.bbox
SingleBBox
p382
(dp383
g3
Nsg4
F0.31734317343173435
sg5
I168
sg6
F0.5
sg7
F0.016574585635359115
sg8
F0.4657646576465764
sg9
F0.2177121771217712
sg10
F0.7347273472734728
sg11
Nsba(icrowdsourcing.annotation_types.bbox.bbox
SingleBBox
p384
(dp385
g3
Nsg4
F0.99921875
sg5
I191
sg6
F0.5
sg7
F0.018843725335438044
sg8
F0.4373377067104005
sg9
F0.932349323493235
sg10
F0.8921689216892168
sg11
Nsba(icrowdsourcing.annotation_types.bbox.bbox
SingleBBox
p386
(dp387
g3
Nsg4
F0.6260762607626077
sg5
I4
sg6
F0.5
sg7
F0.0003946329913180742
sg8
F0.45483121497881646
sg9
F0.6063960639606396
sg10
F0.5116851168511686
sg11
Nsba(icrowdsourcing.annotation_types.bbox.bbox
SingleBBox
p388
(dp389
g3
Nsg4
F0.6536964980544747
sg5
I1
sg6
F0.5
sg7
F9.865824782951855e-05
sg8
F0.4219628188499784
sg9
F0.5719844357976653
sg10
F0.5153480328577604
sg11
Nsba(icrowdsourcing.annotation_types.bbox.bbox
SingleBBox
p390
(dp391
g3
Nsg4
F0.5584255842558425
sg5
I14
sg6
F0.5
sg7
F0.0013812154696132596
sg8
F0.46139128057947243
sg9
F0.5104551045510455
sg10
F0.7259805931392647
sg11
Nsba(icrowdsourcing.annotation_types.bbox.bbox
SingleBBox
p392
(dp393
g3
Nsg4
F0.2521525215252153
sg5
I226
sg6
F0.5
sg7
F0.02229676400947119
sg8
F0.47451141178078443
sg9
F0.1193111931119311
sg10
F0.8396883968839688
sg11
Nsba(icrowdsourcing.annotation_types.bbox.bbox
SingleBBox
p394
(dp395
g3
Nsg4
F0.3665436654366544
sg5
I77
sg6
F0.5
sg7
F0.007596685082872928
sg8
F0.4395243952439524
sg9
F0.3025830258302583
sg10
F0.6953669536695366
sg11
Nsba(icrowdsourcing.annotation_types.bbox.bbox
SingleBBox
p396
(dp397
g3
Nsg4
F0.840909090909091
sg5
I5
sg6
F0.5
sg7
F0.0004932912391475928
sg8
F0.4559884559884561
sg9
F0.8149350649350648
sg10
F0.5454545454545455
sg11
Nsba(icrowdsourcing.annotation_types.bbox.bbox
SingleBBox
p398
(dp399
g3
Nsg4
F0.8339483394833949
sg5
I6
sg6
F0.5
sg7
F0.0005919494869771113
sg8
F0.4395243952439524
sg9
F0.8118081180811807
sg10
F0.5269919365860326
sg11
Nsba(icrowdsourcing.annotation_types.bbox.bbox
SingleBBox
p400
(dp401
g3
Nsg4
F0.8351783517835176
sg5
I2
sg6
F0.5
sg7
F0.0001973164956590371
sg8
F0.4657646576465765
sg9
F0.8191881918819188
sg10
F0.5269919365860325
sg11
Nsba(icrowdsourcing.annotation_types.bbox.bbox
SingleBBox
p402
(dp403
g3
Nsg4
F0.5965559655596555
sg5
I35
sg6
F0.5
sg7
F0.003453038674033149
sg8
F0.3957906245729123
sg9
F0.5375153751537516
sg10
F0.6647533141998087
sg11
Nsba(icrowdsourcing.annotation_types.bbox.bbox
SingleBBox
p404
(dp405
g3
Nsg4
F0.99921875
sg5
I134
sg6
F0.5
sg7
F0.013220205209155485
sg8
F0.4460844608446084
sg9
F0.9753997539975398
sg10
F0.6319529861965287
sg11
Nsba(icrowdsourcing.annotation_types.bbox.bbox
SingleBBox
p406
(dp407
g3
Nsg4
F0.09963099630996308
sg5
I1
sg6
F0.5
sg7
F9.865824782951855e-05
sg8
F0.4876315429820965
sg9
F0.07503075030750306
sg10
F0.5488588219215526
sg11
Nsba(icrowdsourcing.annotation_types.bbox.bbox
SingleBBox
p408
(dp409
g3
Nsg4
F0.08733087330873306
sg5
I2
sg6
F0.5
sg7
F0.0001973164956590371
sg8
F0.4657646576465764
sg9
F0.07011070110701105
sg10
F0.5401120677873446
sg11
Nsba(icrowdsourcing.annotation_types.bbox.bbox
SingleBBox
p410
(dp411
g3
Nsg4
F0.0959409594095941
sg5
I1
sg6
F0.5
sg7
F9.865824782951855e-05
sg8
F0.48763154298209643
sg9
F0.08364083640836407
sg10
F0.5641656416564165
sg11
Nsba(icrowdsourcing.annotation_types.bbox.bbox
SingleBBox
p412
(dp413
g3
Nsg4
F0.09471094710947107
sg5
I1
sg6
F0.5
sg7
F9.865824782951855e-05
sg8
F0.5007516741834085
sg9
F0.08733087330873306
sg10
F0.5357386907202405
sg11
Nsba(icrowdsourcing.annotation_types.bbox.bbox
SingleBBox
p414
(dp415
g3
Nsg4
F0.08364083640836406
sg5
I1
sg6
F0.5
sg7
F9.865824782951855e-05
sg8
F0.4985649856498565
sg9
F0.07503075030750306
sg10
F0.5335520021866885
sg11
Nsba(icrowdsourcing.annotation_types.bbox.bbox
SingleBBox
p416
(dp417
g3
Nsg4
F0.5031297201020711
sg5
I1
sg6
F0.5
sg7
F9.865824782951855e-05
sg8
F0.5827361452361453
sg9
F0.5031297201020711
sg10
F0.5827361452361453
sg11
Nsba(icrowdsourcing.annotation_types.bbox.bbox
SingleBBox
p418
(dp419
g3
Nsg4
F0.1291512915129151
sg5
I53
sg6
F0.5
sg7
F0.005228887134964483
sg8
F0.5357386907202405
sg9
F0.08241082410824106
sg10
F0.7084870848708488
sg11
Nsba(icrowdsourcing.annotation_types.bbox.bbox
SingleBBox
p420
(dp421
g3
Nsg4
F0.23001230012300122
sg5
I259
sg6
F0.5
sg7
F0.025552486187845305
sg8
F0.4482711493781605
sg9
F0.16482164821648215
sg10
F0.7653409867432008
sg11
Nsba(icrowdsourcing.annotation_types.bbox.bbox
SingleBBox
p422
(dp423
g3
Nsg4
F0.14145141451414506
sg5
I13
sg6
F0.5
sg7
F0.001282557221783741
sg8
F0.5597922645893125
sg9
F0.0910209102091021
sg10
F0.7281672816728164
sg11
Nsba(icrowdsourcing.annotation_types.bbox.bbox
SingleBBox
p424
(dp425
g3
Nsg4
F0.2429193795896043
sg5
I41
sg6
F0.5
sg7
F0.00404498816101026
sg8
F0.37254901960784326
sg9
F0.16203702664842784
sg10
F0.6427015250544663
sg11
Nsba(icrowdsourcing.annotation_types.bbox.bbox
SingleBBox
p426
(dp427
g3
Nsg4
F0.15252152521525214
sg5
I1
sg6
F0.5
sg7
F9.865824782951855e-05
sg8
F0.5816591499248326
sg9
F0.1279212792127921
sg10
F0.6581932485991526
sg11
Nsba(icrowdsourcing.annotation_types.bbox.bbox
SingleBBox
p428
(dp429
g3
Nsg4
F0.059040590405904037
sg5
I2
sg6
F0.5
sg7
F0.0001973164956590371
sg8
F0.4963782971163045
sg9
F0.04428044280442802
sg10
F0.5619789531228645
sg11
Nsba(icrowdsourcing.annotation_types.bbox.bbox
SingleBBox
p430
(dp431
g3
Nsg4
F0.050430504305043033
sg5
I3
sg6
F0.5
sg7
F0.00029597474348855567
sg8
F0.5029383627169605
sg9
F0.02583025830258301
sg10
F0.5532321989886566
sg11
Nsba(icrowdsourcing.annotation_types.bbox.bbox
SingleBBox
p432
(dp433
g3
Nsg4
F0.05781057810578103
sg5
I2
sg6
F0.5
sg7
F0.0001973164956590371
sg8
F0.5051250512505125
sg9
F0.040590405904059025
sg10
F0.5422987563208964
sg11
Nsba(icrowdsourcing.annotation_types.bbox.bbox
SingleBBox
p434
(dp435
g3
Nsg4
F0.05658056580565805
sg5
I3
sg6
F0.5
sg7
F0.00029597474348855567
sg8
F0.48544485444854446
sg9
F0.03936039360393602
sg10
F0.5554188875222086
sg11
Nsba(icrowdsourcing.annotation_types.bbox.bbox
SingleBBox
p436
(dp437
g3
Nsg4
F0.04428044280442802
sg5
I1
sg6
F0.5
sg7
F9.865824782951855e-05
sg8
F0.5073117397840644
sg9
F0.040590405904059025
sg10
F0.5510455104551045
sg11
Nsba(icrowdsourcing.annotation_types.bbox.bbox
SingleBBox
p438
(dp439
g3
Nsg4
F0.05166051660516602
sg5
I1
sg6
F0.5
sg7
F9.865824782951855e-05
sg8
F0.5116851168511686
sg9
F0.04797047970479703
sg10
F0.5554188875222086
sg11
Nsba(icrowdsourcing.annotation_types.bbox.bbox
SingleBBox
p440
(dp441
g3
Nsg4
F0.25584255842558423
sg5
I229
sg6
F0.5
sg7
F0.022592738752959748
sg8
F0.45483121497881646
sg9
F0.1894218942189422
sg10
F0.7565942326089927
sg11
Nsba(icrowdsourcing.annotation_types.bbox.bbox
SingleBBox
p442
(dp443
g3
Nsg4
F0.03026481715006305
sg5
I1
sg6
F0.5
sg7
F9.865824782951855e-05
sg8
F0.497463906731645
sg9
F0.018915510718789406
sg10
F0.5423006728798865
sg11
Nsba(icrowdsourcing.annotation_types.bbox.bbox
SingleBBox
p444
(dp445
g3
Nsg4
F0.03897700204310308
sg5
I2
sg6
F0.5
sg7
F0.0001973164956590371
sg8
F0.49140049140049136
sg9
F0.030377493443594483
sg10
F0.5547365547365547
sg11
Nsba(icrowdsourcing.annotation_types.bbox.bbox
SingleBBox
p446
(dp447
g3
Nsg4
F0.9889298892988929
sg5
I5
sg6
F0.5
sg7
F0.0004932912391475928
sg8
F0.4482711493781605
sg9
F0.9692496924969252
sg10
F0.5160584939182725
sg11
Nsba(icrowdsourcing.annotation_types.bbox.bbox
SingleBBox
p448
(dp449
g3
Nsg4
F0.998769987699877
sg5
I11
sg6
F0.5
sg7
F0.001085240726124704
sg8
F0.43733770671040034
sg9
F0.9581795817958179
sg10
F0.5248052480524805
sg11
Nsba(icrowdsourcing.annotation_types.bbox.bbox
SingleBBox
p450
(dp451
g3
Nsg4
F0.2952029520295203
sg5
I2
sg6
F0.5
sg7
F0.0001973164956590371
sg8
F0.45045783791171246
sg9
F0.26691266912669126
sg10
F0.5204318709853765
sg11
Nsba(icrowdsourcing.annotation_types.bbox.bbox
SingleBBox
p452
(dp453
g3
Nsg4
F0.28905289052890526
sg5
I3
sg6
F0.5
sg7
F0.00029597474348855567
sg8
F0.46139128057947243
sg9
F0.27552275522755226
sg10
F0.5204318709853766
sg11
Nsba(icrowdsourcing.annotation_types.bbox.bbox
SingleBBox
p454
(dp455
g3
Nsg4
F0.1180811808118081
sg5
I1
sg6
F0.5
sg7
F9.865824782951855e-05
sg8
F0.44171108377750445
sg9
F0.10578105781057807
sg10
F0.5094984283176165
sg11
Nsba(icrowdsourcing.annotation_types.bbox.bbox
SingleBBox
p456
(dp457
g3
Nsg4
F0.17534063840673944
sg5
I4
sg6
F0.5
sg7
F0.0003946329913180742
sg8
F0.4586404586404586
sg9
F0.1384856015517026
sg10
F0.5372645372645373
sg11
Nsba(icrowdsourcing.annotation_types.bbox.bbox
SingleBBox
p458
(dp459
g3
Nsg4
F0.02583025830258301
sg5
I1
sg6
F0.5
sg7
F9.865824782951855e-05
sg8
F0.47888478884788854
sg9
F0.023370233702337005
sg10
F0.48981823151564846
sg11
Nsba(icrowdsourcing.annotation_types.bbox.bbox
SingleBBox
p460
(dp461
g3
Nsg4
F0.015990159901599
sg5
I1
sg6
F0.5
sg7
F9.865824782951855e-05
sg8
F0.4723247232472324
sg9
F0.014760147601475992
sg10
F0.48981823151564846
sg11
Nsba(icrowdsourcing.annotation_types.bbox.bbox
SingleBBox
p462
(dp463
g3
Nsg4
F0.03131147771885838
sg5
I1
sg6
F0.5
sg7
F9.865824782951855e-05
sg8
F0.46114613299311685
sg9
F0.023631765743221945
sg10
F0.504032510760386
sg11
Nsba(icrowdsourcing.annotation_types.bbox.bbox
SingleBBox
p464
(dp465
g3
Nsg4
F0.013757866838991568
sg5
I1
sg6
F0.5
sg7
F9.865824782951855e-05
sg8
F0.4689253146564558
sg9
F0.010466567204248111
sg10
F0.5001316997907034
sg11
Nsba(icrowdsourcing.annotation_types.bbox.bbox
SingleBBox
p466
(dp467
g3
Nsg4
F0.020340466108478485
sg5
I1
sg6
F0.5
sg7
F9.865824782951855e-05
sg8
F0.44554292332212414
sg9
F0.01375786683899156
sg10
F0.5235140569172972
sg11
Nsba(icrowdsourcing.annotation_types.bbox.bbox
SingleBBox
p468
(dp469
g3
Nsg4
F0.059040590405904037
sg5
I8
sg6
F0.5
sg7
F0.0007892659826361484
sg8
F0.5313653136531366
sg9
F0.020910209102091005
sg10
F0.6516331829984967
sg11
Nsba(icrowdsourcing.annotation_types.bbox.bbox
SingleBBox
p470
(dp471
g3
Nsg4
F0.06888068880688805
sg5
I324
sg6
F0.5
sg7
F0.03196527229676401
sg8
F0.45483121497881646
sg9
F0.0
sg10
F0.6406997403307367
sg11
Nsba(icrowdsourcing.annotation_types.bbox.bbox
SingleBBox
p472
(dp473
g3
Nsg4
F0.22509225092250923
sg5
I10
sg6
F0.5
sg7
F0.0009865824782951855
sg8
F0.4460844608446084
sg9
F0.2004920049200492
sg10
F0.5248052480524805
sg11
Nsba(icrowdsourcing.annotation_types.bbox.bbox
SingleBBox
p474
(dp475
g3
Nsg4
F0.21771217712177124
sg5
I2
sg6
F0.5
sg7
F0.0001973164956590371
sg8
F0.4635779691130245
sg9
F0.2078720787207872
sg10
F0.5226185595189287
sg11
Nsba(icrowdsourcing.annotation_types.bbox.bbox
SingleBBox
p476
(dp477
g3
Nsg4
F0.2189421894218942
sg5
I1
sg6
F0.5
sg7
F9.865824782951855e-05
sg8
F0.4788847888478885
sg9
F0.21156211562115618
sg10
F0.5269919365860325
sg11
Nsba(icrowdsourcing.annotation_types.bbox.bbox
SingleBBox
p478
(dp479
g3
Nsg4
F0.6875768757687576
sg5
I23
sg6
F0.5
sg7
F0.0022691397000789266
sg8
F0.45483121497881646
sg9
F0.6519065190651906
sg10
F0.6953669536695366
sg11
Nsba(icrowdsourcing.annotation_types.bbox.bbox
SingleBBox
p480
(dp481
g3
Nsg4
F0.2066420664206642
sg5
I4
sg6
F0.5
sg7
F0.0003946329913180742
sg8
F0.42859095257619245
sg9
F0.18450184501845013
sg10
F0.5444854448544485
sg11
Nsba(icrowdsourcing.annotation_types.bbox.bbox
SingleBBox
p482
(dp483
g3
Nsg4
F0.2201722017220172
sg5
I12
sg6
F0.5
sg7
F0.0011838989739542227
sg8
F0.4132841328413284
sg9
F0.1746617466174661
sg10
F0.5860325269919365
sg11
Nsba(icrowdsourcing.annotation_types.bbox.bbox
SingleBBox
p484
(dp485
g3
Nsg4
F0.03651999958610067
sg5
I1
sg6
F0.5
sg7
F9.865824782951855e-05
sg8
F0.45208845208845205
sg9
F0.03651999958610067
sg10
F0.45208845208845205
sg11
Nsba(icrowdsourcing.annotation_types.bbox.bbox
SingleBBox
p486
(dp487
g3
Nsg4
F0.15744157441574416
sg5
I1
sg6
F0.5
sg7
F9.865824782951855e-05
sg8
F0.47451141178078443
sg9
F0.1402214022140221
sg10
F0.5182451824518245
sg11
Nsba(icrowdsourcing.annotation_types.bbox.bbox
SingleBBox
p488
(dp489
g3
Nsg4
F0.5030750307503075
sg5
I1
sg6
F0.5
sg7
F9.865824782951855e-05
sg8
F0.47451141178078443
sg9
F0.4846248462484626
sg10
F0.5313653136531366
sg11
Nsba(icrowdsourcing.annotation_types.bbox.bbox
SingleBBox
p490
(dp491
g3
Nsg4
F0.17120622568093388
sg5
I1
sg6
F0.5
sg7
F9.865824782951855e-05
sg8
F0.456549935149157
sg9
F0.12451361867704283
sg10
F0.5153480328577604
sg11
Nsba(icrowdsourcing.annotation_types.bbox.bbox
SingleBBox
p492
(dp493
g3
Nsg4
F0.5350194552529183
sg5
I1
sg6
F0.5
sg7
F9.865824782951855e-05
sg8
F0.45309122351923903
sg9
F0.4708171206225681
sg10
F0.5533938607868568
sg11
Nsba(icrowdsourcing.annotation_types.bbox.bbox
SingleBBox
p494
(dp495
g3
Nsg4
F0.014406977473078508
sg5
I83
sg6
F0.5
sg7
F0.008188634569850039
sg8
F0.4586404586404585
sg9
F0.0
sg10
F0.6137046137046137
sg11
Nsba(icrowdsourcing.annotation_types.bbox.bbox
SingleBBox
p496
(dp497
g3
Nsg4
F0.9889298892988929
sg5
I147
sg6
F0.5
sg7
F0.014502762430939226
sg8
F0.39360393603936045
sg9
F0.8745387453874539
sg10
F0.8812354790214568
sg11
Nsba(icrowdsourcing.annotation_types.bbox.bbox
SingleBBox
p498
(dp499
g3
Nsg4
F0.21525215252152527
sg5
I8
sg6
F0.5
sg7
F0.0007892659826361484
sg8
F0.48107147738144046
sg9
F0.18696186961869615
sg10
F0.7369140358070247
sg11
Nsba(icrowdsourcing.annotation_types.bbox.bbox
SingleBBox
p500
(dp501
g3
Nsg4
F0.8991389913899137
sg5
I117
sg6
F0.5
sg7
F0.01154301499605367
sg8
F0.4001640016400164
sg9
F0.7552275522755226
sg10
F0.9490228235615689
sg11
Nsba(icrowdsourcing.annotation_types.bbox.bbox
SingleBBox
p502
(dp503
g3
Nsg4
F0.5129151291512916
sg5
I1
sg6
F0.5
sg7
F9.865824782951855e-05
sg8
F0.45264452644526443
sg9
F0.48708487084870844
sg10
F0.5094984283176165
sg11
Nsba(icrowdsourcing.annotation_types.bbox.bbox
SingleBBox
p504
(dp505
g3
Nsg4
F0.10578105781057807
sg5
I8
sg6
F0.5
sg7
F0.0007892659826361484
sg8
F0.4592045920459204
sg9
F0.08856088560885607
sg10
F0.5335520021866885
sg11
Nsba(icrowdsourcing.annotation_types.bbox.bbox
SingleBBox
p506
(dp507
g3
Nsg4
F0.1328413284132841
sg5
I18
sg6
F0.5
sg7
F0.001775848460931334
sg8
F0.44171108377750445
sg9
F0.06765067650676504
sg10
F0.5816591499248326
sg11
Nsba(icrowdsourcing.annotation_types.bbox.bbox
SingleBBox
p508
(dp509
g3
Nsg4
F0.09348093480934808
sg5
I124
sg6
F0.5
sg7
F0.0122336227308603
sg8
F0.4766981003143365
sg9
F0.05412054120541203
sg10
F0.6581932485991526
sg11
Nsba(icrowdsourcing.annotation_types.bbox.bbox
SingleBBox
p510
(dp511
g3
Nsg4
F0.07870369331509455
sg5
I12
sg6
F0.5
sg7
F0.0011838989739542227
sg8
F0.420479302832244
sg9
F0.05541937958960437
sg10
F0.6339869281045752
sg11
Nsba(icrowdsourcing.annotation_types.bbox.bbox
SingleBBox
p512
(dp513
g3
Nsg4
F0.9483394833948342
sg5
I133
sg6
F0.5
sg7
F0.013121546961325966
sg8
F0.4635779691130245
sg9
F0.908979089790898
sg10
F0.6472598059313928
sg11
Nsba(icrowdsourcing.annotation_types.bbox.bbox
SingleBBox
p514
(dp515
g3
Nsg4
F0.6457564575645757
sg5
I87
sg6
F0.5
sg7
F0.008583267561168114
sg8
F0.48981823151564846
sg9
F0.5916359163591636
sg10
F0.7500341670083366
sg11
Nsba(icrowdsourcing.annotation_types.bbox.bbox
SingleBBox
p516
(dp517
g3
Nsg4
F0.6728167281672817
sg5
I16
sg6
F0.5
sg7
F0.0015785319652722968
sg8
F0.5051250512505125
sg9
F0.6273062730627307
sg10
F0.7544075440754408
sg11
Nsba(icrowdsourcing.annotation_types.bbox.bbox
SingleBBox
p518
(dp519
g3
Nsg4
F0.9803198031980319
sg5
I11
sg6
F0.5
sg7
F0.001085240726124704
sg8
F0.4482711493781605
sg9
F0.9544895448954488
sg10
F0.5269919365860324
sg11
Nsba(icrowdsourcing.annotation_types.bbox.bbox
SingleBBox
p520
(dp521
g3
Nsg4
F0.9926199261992619
sg5
I4
sg6
F0.5
sg7
F0.0003946329913180742
sg8
F0.4701380347136805
sg9
F0.947109471094711
sg10
F0.5466721333880006
sg11
Nsba(icrowdsourcing.annotation_types.bbox.bbox
SingleBBox
p522
(dp523
g3
Nsg4
F0.8105781057810578
sg5
I151
sg6
F0.5
sg7
F0.014897395422257301
sg8
F0.4460844608446084
sg9
F0.7072570725707257
sg10
F0.9621429547628809
sg11
Nsba(icrowdsourcing.annotation_types.bbox.bbox
SingleBBox
p524
(dp525
g3
Nsg4
F0.9692496924969252
sg5
I2
sg6
F0.5
sg7
F0.0001973164956590371
sg8
F0.45045783791171246
sg9
F0.95079950799508
sg10
F0.5073117397840645
sg11
Nsba(icrowdsourcing.annotation_types.bbox.bbox
SingleBBox
p526
(dp527
g3
Nsg4
F0.7699876998769988
sg5
I138
sg6
F0.5
sg7
F0.01361483820047356
sg8
F0.45264452644526443
sg9
F0.7084870848708487
sg10
F0.8178215115484488
sg11
Nsba(icrowdsourcing.annotation_types.bbox.bbox
SingleBBox
p528
(dp529
g3
Nsg4
F0.8400984009840098
sg5
I187
sg6
F0.5
sg7
F0.01844909234411997
sg8
F0.45045783791171234
sg9
F0.7675276752767527
sg10
F0.8484351510181769
sg11
Nsba(icrowdsourcing.annotation_types.bbox.bbox
SingleBBox
p530
(dp531
g3
Nsg4
F0.7453874538745389
sg5
I107
sg6
F0.5
sg7
F0.010556432517758485
sg8
F0.4570179035123684
sg9
F0.6900369003690038
sg10
F0.7281672816728167
sg11
Nsba(icrowdsourcing.annotation_types.bbox.bbox
SingleBBox
p532
(dp533
g3
Nsg4
F0.41697416974169743
sg5
I14
sg6
F0.5
sg7
F0.0013812154696132596
sg8
F0.47451141178078443
sg9
F0.37392373923739236
sg10
F0.7019270192701927
sg11
Nsba(icrowdsourcing.annotation_types.bbox.bbox
SingleBBox
p534
(dp535
g3
Nsg4
F0.4624846248462484
sg5
I45
sg6
F0.5
sg7
F0.004439621152328334
sg8
F0.46139128057947243
sg9
F0.4059040590405905
sg10
F0.7850211835451688
sg11
Nsba(icrowdsourcing.annotation_types.bbox.bbox
SingleBBox
p536
(dp537
g3
Nsg4
F0.8499384993849939
sg5
I126
sg6
F0.5
sg7
F0.012430939226519336
sg8
F0.45264452644526443
sg9
F0.7982779827798276
sg10
F0.7653409867432008
sg11
Nsba(icrowdsourcing.annotation_types.bbox.bbox
SingleBBox
p538
(dp539
g3
Nsg4
F0.7921279212792127
sg5
I10
sg6
F0.5
sg7
F0.0009865824782951855
sg8
F0.4351510181768485
sg9
F0.7626076260762608
sg10
F0.6078994123274566
sg11
Nsba(icrowdsourcing.annotation_types.bbox.bbox
SingleBBox
p540
(dp541
g3
Nsg4
F0.08979089790897907
sg5
I7
sg6
F0.5
sg7
F0.0006906077348066298
sg8
F0.4570179035123685
sg9
F0.05781057810578103
sg10
F0.5379253792537925
sg11
Nsba(icrowdsourcing.annotation_types.bbox.bbox
SingleBBox
p542
(dp543
g3
Nsg4
F0.07626076260762607
sg5
I2
sg6
F0.5
sg7
F0.0001973164956590371
sg8
F0.44389777231105637
sg9
F0.05658056580565805
sg10
F0.5466721333880006
sg11
Nsba(icrowdsourcing.annotation_types.bbox.bbox
SingleBBox
p544
(dp545
g3
Nsg4
F0.5350553505535055
sg5
I13
sg6
F0.5
sg7
F0.001282557221783741
sg8
F0.4001640016400164
sg9
F0.49077490774907756
sg10
F0.5401120677873446
sg11
Nsba(icrowdsourcing.annotation_types.bbox.bbox
SingleBBox
p546
(dp547
g3
Nsg4
F0.16113161131611314
sg5
I141
sg6
F0.5
sg7
F0.013910812943962115
sg8
F0.4570179035123685
sg9
F0.04428044280442804
sg10
F0.863741970753041
sg11
Nsba(icrowdsourcing.annotation_types.bbox.bbox
SingleBBox
p548
(dp549
g3
Nsg4
F0.3382533825338253
sg5
I10
sg6
F0.5
sg7
F0.0009865824782951855
sg8
F0.4570179035123685
sg9
F0.030750307503075013
sg10
F0.9031023643569769
sg11
Nsba(icrowdsourcing.annotation_types.bbox.bbox
SingleBBox
p550
(dp551
g3
Nsg4
F0.8769987699876998
sg5
I6
sg6
F0.5
sg7
F0.0005919494869771113
sg8
F0.4460844608446085
sg9
F0.8474784747847478
sg10
F0.5729123957906246
sg11
Nsba(icrowdsourcing.annotation_types.bbox.bbox
SingleBBox
p552
(dp553
g3
Nsg4
F0.7908979089790897
sg5
I67
sg6
F0.5
sg7
F0.0066101026045777425
sg8
F0.5007516741834084
sg9
F0.7355473554735547
sg10
F0.8375017083504168
sg11
Nsba(icrowdsourcing.annotation_types.bbox.bbox
SingleBBox
p554
(dp555
g3
Nsg4
F0.07135075213862399
sg5
I38
sg6
F0.5
sg7
F0.003749013417521705
sg8
F0.3485838779956428
sg9
F0.03458604625627105
sg10
F0.6710239651416123
sg11
Nsba(icrowdsourcing.annotation_types.bbox.bbox
SingleBBox
p556
(dp557
g3
Nsg4
F0.9655596555965559
sg5
I53
sg6
F0.5
sg7
F0.005228887134964483
sg8
F0.41765750990843253
sg9
F0.9286592865928661
sg10
F0.6210195435287685
sg11
Nsba(icrowdsourcing.annotation_types.bbox.bbox
SingleBBox
p558
(dp559
g3
Nsg4
F0.8767747145432692
sg5
I1
sg6
F0.5
sg7
F9.865824782951855e-05
sg8
F0.5003835371567186
sg9
F0.8767747145432692
sg10
F0.5003835371567186
sg11
Nsba(icrowdsourcing.annotation_types.bbox.bbox
SingleBBox
p560
(dp561
g3
Nsg4
F0.24108241082410822
sg5
I19
sg6
F0.5
sg7
F0.0018745067087608525
sg8
F0.5116851168511684
sg9
F0.19926199261992622
sg10
F0.7259805931392647
sg11
Nsba(icrowdsourcing.annotation_types.bbox.bbox
SingleBBox
p562
(dp563
g3
Nsg4
F0.11023007329617432
sg5
I6
sg6
F0.5
sg7
F0.0005919494869771113
sg8
F0.4586404586404585
sg9
F0.07583203889813994
sg10
F0.5416325416325416
sg11
Nsba(icrowdsourcing.annotation_types.bbox.bbox
SingleBBox
p564
(dp565
g3
Nsg4
F0.4981549815498155
sg5
I7
sg6
F0.5
sg7
F0.0006906077348066298
sg8
F0.4438977723110564
sg9
F0.4575645756457565
sg10
F0.6253929205958726
sg11
Nsba(icrowdsourcing.annotation_types.bbox.bbox
SingleBBox
p566
(dp567
g3
Nsg4
F0.9212792127921279
sg5
I1
sg6
F0.5
sg7
F9.865824782951855e-05
sg8
F0.46139128057947243
sg9
F0.9126691266912669
sg10
F0.4941916085827526
sg11
Nsba(icrowdsourcing.annotation_types.bbox.bbox
SingleBBox
p568
(dp569
g3
Nsg4
F0.8622386223862236
sg5
I45
sg6
F0.5
sg7
F0.004439621152328334
sg8
F0.5379253792537925
sg9
F0.8081180811808117
sg10
F0.7391007243405767
sg11
Nsba(icrowdsourcing.annotation_types.bbox.bbox
SingleBBox
p570
(dp571
g3
Nsg4
F0.6863468634686347
sg5
I1
sg6
F0.5
sg7
F9.865824782951855e-05
sg8
F0.4570179035123684
sg9
F0.6826568265682658
sg10
F0.4766981003143365
sg11
Nsba(icrowdsourcing.annotation_types.bbox.bbox
SingleBBox
p572
(dp573
g3
Nsg4
F0.7220172201722017
sg5
I87
sg6
F0.5
sg7
F0.008583267561168114
sg8
F0.39360393603936045
sg9
F0.6223862238622386
sg10
F0.977449774497745
sg11
Nsba(icrowdsourcing.annotation_types.bbox.bbox
SingleBBox
p574
(dp575
g3
Nsg4
F0.99921875
sg5
I6
sg6
F0.5
sg7
F0.0005919494869771113
sg8
F0.5707257072570725
sg9
F0.9803198031980319
sg10
F0.8790487904879049
sg11
Nsba(icrowdsourcing.annotation_types.bbox.bbox
SingleBBox
p576
(dp577
g3
Nsg4
F0.99921875
sg5
I6
sg6
F0.5
sg7
F0.0005919494869771113
sg8
F0.6713133798004647
sg9
F0.9581795817958181
sg10
F0.8571819051523849
sg11
Nsba(icrowdsourcing.annotation_types.bbox.bbox
SingleBBox
p578
(dp579
g3
Nsg4
F0.9372693726937269
sg5
I7
sg6
F0.5
sg7
F0.0006906077348066298
sg8
F0.42859095257619245
sg9
F0.9077490774907749
sg10
F0.5357386907202405
sg11
Nsba(icrowdsourcing.annotation_types.bbox.bbox
SingleBBox
p580
(dp581
g3
Nsg4
F0.992619926199262
sg5
I6
sg6
F0.5
sg7
F0.0005919494869771113
sg8
F0.4110974443077764
sg9
F0.9692496924969249
sg10
F0.5335520021866885
sg11
Nsba(icrowdsourcing.annotation_types.bbox.bbox
SingleBBox
p582
(dp583
g3
Nsg4
F0.1968019680196802
sg5
I6
sg6
F0.5
sg7
F0.0005919494869771113
sg8
F0.43733770671040045
sg9
F0.17343173431734318
sg10
F0.5357386907202405
sg11
Nsba(icrowdsourcing.annotation_types.bbox.bbox
SingleBBox
p584
(dp585
g3
Nsg4
F0.7894073139974779
sg5
I26
sg6
F0.5
sg7
F0.002565114443567482
sg8
F0.4368221736746007
sg9
F0.746532156368222
sg10
F0.65428052370131
sg11
Nsba(icrowdsourcing.annotation_types.bbox.bbox
SingleBBox
p586
(dp587
g3
Nsg4
F0.9984364615025623
sg5
I3
sg6
F0.5
sg7
F0.00029597474348855567
sg8
F0.4171444170884735
sg9
F0.9664954295615307
sg10
F0.5001365000805564
sg11
Nsba(icrowdsourcing.annotation_types.bbox.bbox
SingleBBox
p588
(dp589
g3
Nsg4
F0.9320973951634961
sg5
I2
sg6
F0.5
sg7
F0.0001973164956590371
sg8
F0.4149604149044713
sg9
F0.8964708595369608
sg10
F0.5154245153685717
sg11
Nsba(icrowdsourcing.annotation_types.bbox.bbox
SingleBBox
p590
(dp591
g3
Nsg4
F0.609001572067673
sg5
I54
sg6
F0.5
sg7
F0.005327545382794002
sg8
F0.4215124214564778
sg9
F0.5070359701020711
sg10
F0.6792246791687353
sg11
Nsba(icrowdsourcing.annotation_types.bbox.bbox
SingleBBox
p592
(dp593
g3
Nsg4
F0.3456334563345633
sg5
I1
sg6
F0.5
sg7
F9.865824782951855e-05
sg8
F0.42421757550908834
sg9
F0.3259532595325953
sg10
F0.4963782971163045
sg11
Nsba(icrowdsourcing.annotation_types.bbox.bbox
SingleBBox
p594
(dp595
g3
Nsg4
F0.35424354243542433
sg5
I35
sg6
F0.5
sg7
F0.003453038674033149
sg8
F0.3957906245729123
sg9
F0.28905289052890526
sg10
F0.905289052890529
sg11
Nsba(icrowdsourcing.annotation_types.bbox.bbox
SingleBBox
p596
(dp597
g3
Nsg4
F0.5631294203567035
sg5
I1
sg6
F0.5
sg7
F9.865824782951855e-05
sg8
F0.7190361486948202
sg9
F0.5631294203567035
sg10
F0.7190361486948202
sg11
Nsba(icrowdsourcing.annotation_types.bbox.bbox
SingleBBox
p598
(dp599
g3
Nsg4
F0.16605166051660514
sg5
I108
sg6
F0.5
sg7
F0.010655090765588003
sg8
F0.4854448544485444
sg9
F0.1230012300123001
sg10
F0.7128604619379527
sg11
Nsba(icrowdsourcing.annotation_types.bbox.bbox
SingleBBox
p600
(dp601
g3
Nsg4
F0.6826568265682657
sg5
I7
sg6
F0.5
sg7
F0.0006906077348066298
sg8
F0.4460844608446084
sg9
F0.6211562115621156
sg10
F0.6013393467268006
sg11
Nsba(icrowdsourcing.annotation_types.bbox.bbox
SingleBBox
p602
(dp603
g3
Nsg4
F0.6654366543665436
sg5
I7
sg6
F0.5
sg7
F0.0006906077348066298
sg8
F0.47451141178078443
sg9
F0.6248462484624846
sg10
F0.6166461664616646
sg11
Nsba(icrowdsourcing.annotation_types.bbox.bbox
SingleBBox
p604
(dp605
g3
Nsg4
F0.4624846248462484
sg5
I4
sg6
F0.5
sg7
F0.0003946329913180742
sg8
F0.44171108377750445
sg9
F0.41697416974169743
sg10
F0.5422987563208966
sg11
Nsba(icrowdsourcing.annotation_types.bbox.bbox
SingleBBox
p606
(dp607
g3
Nsg4
F0.9028290282902829
sg5
I9
sg6
F0.5
sg7
F0.000887924230465667
sg8
F0.4832581659149925
sg9
F0.6851168511685117
sg10
F0.8112614459477928
sg11
Nsba(icrowdsourcing.annotation_types.bbox.bbox
SingleBBox
p608
(dp609
g3
Nsg4
F0.8671586715867159
sg5
I53
sg6
F0.5
sg7
F0.005228887134964483
sg8
F0.4592045920459204
sg9
F0.8142681426814269
sg10
F0.6428864288642886
sg11
Nsba(icrowdsourcing.annotation_types.bbox.bbox
SingleBBox
p610
(dp611
g3
Nsg4
F0.32472324723247237
sg5
I1
sg6
F0.5
sg7
F9.865824782951855e-05
sg8
F0.4657646576465764
sg9
F0.30627306273062727
sg10
F0.5248052480524805
sg11
Nsba(icrowdsourcing.annotation_types.bbox.bbox
SingleBBox
p612
(dp613
g3
Nsg4
F0.7429274292742928
sg5
I1
sg6
F0.5
sg7
F9.865824782951855e-05
sg8
F0.4788847888478884
sg9
F0.7257072570725708
sg10
F0.5401120677873446
sg11
Nsba(icrowdsourcing.annotation_types.bbox.bbox
SingleBBox
p614
(dp615
g3
Nsg4
F0.7404674046740467
sg5
I1
sg6
F0.5
sg7
F9.865824782951855e-05
sg8
F0.45920459204592057
sg9
F0.7306273062730627
sg10
F0.5532321989886566
sg11
Nsba(icrowdsourcing.annotation_types.bbox.bbox
SingleBBox
p616
(dp617
g3
Nsg4
F0.3521400778210117
sg5
I1
sg6
F0.5
sg7
F9.865824782951855e-05
sg8
F0.44617380025940334
sg9
F0.2937743190661479
sg10
F0.5153480328577605
sg11
Nsba(icrowdsourcing.annotation_types.bbox.bbox
SingleBBox
p618
(dp619
g3
Nsg4
F0.77431906614786
sg5
I1
sg6
F0.5
sg7
F9.865824782951855e-05
sg8
F0.4876783398184176
sg9
F0.7198443579766537
sg10
F0.5568525724167748
sg11
Nsba(icrowdsourcing.annotation_types.bbox.bbox
SingleBBox
p620
(dp621
g3
Nsg4
F0.5292207792207793
sg5
I6
sg6
F0.5
sg7
F0.0005919494869771113
sg8
F0.43001443001443007
sg9
F0.5032467532467533
sg10
F0.5310245310245311
sg11
Nsba(icrowdsourcing.annotation_types.bbox.bbox
SingleBBox
p622
(dp623
g3
Nsg4
F0.5264452644526445
sg5
I1
sg6
F0.5
sg7
F9.865824782951855e-05
sg8
F0.4482711493781605
sg9
F0.5079950799507996
sg10
F0.5138718053847204
sg11
Nsba(icrowdsourcing.annotation_types.bbox.bbox
SingleBBox
p624
(dp625
g3
Nsg4
F0.5217779848440859
sg5
I1
sg6
F0.5
sg7
F9.865824782951855e-05
sg8
F0.43680043674449315
sg9
F0.5008934639595651
sg10
F0.5045045044485608
sg11
Nsba(icrowdsourcing.annotation_types.bbox.bbox
SingleBBox
p626
(dp627
g3
Nsg4
F0.12054120541205411
sg5
I1
sg6
F0.5
sg7
F9.865824782951855e-05
sg8
F0.7806478064780648
sg9
F0.12054120541205411
sg10
F0.846248462484625
sg11
Nsba(icrowdsourcing.annotation_types.bbox.bbox
SingleBBox
p628
(dp629
g3
Nsg4
F0.02214022140221401
sg5
I2
sg6
F0.5
sg7
F0.0001973164956590371
sg8
F0.45483121497881646
sg9
F0.012300123001229995
sg10
F0.6800601339346727
sg11
Nsba(icrowdsourcing.annotation_types.bbox.bbox
SingleBBox
p630
(dp631
g3
Nsg4
F0.5116851168511685
sg5
I11
sg6
F0.5
sg7
F0.001085240726124704
sg8
F0.3957906245729123
sg9
F0.45018450184501846
sg10
F0.5663523301899686
sg11
Nsba(icrowdsourcing.annotation_types.bbox.bbox
SingleBBox
p632
(dp633
g3
Nsg4
F0.4993849938499385
sg5
I15
sg6
F0.5
sg7
F0.0014798737174427782
sg8
F0.4110974443077764
sg9
F0.46002460024600245
sg10
F0.5401120677873446
sg11
Nsba(icrowdsourcing.annotation_types.bbox.bbox
SingleBBox
p634
(dp635
g3
Nsg4
F0.5916359163591636
sg5
I1
sg6
F0.5
sg7
F9.865824782951855e-05
sg8
F0.5838458384583844
sg9
F0.5916359163591636
sg10
F0.5860325269919365
sg11
Nsba(icrowdsourcing.annotation_types.bbox.bbox
SingleBBox
p636
(dp637
g3
Nsg4
F0.37023370233702335
sg5
I2
sg6
F0.5
sg7
F0.0001973164956590371
sg8
F0.4635779691130245
sg9
F0.35301353013530135
sg10
F0.5226185595189287
sg11
Nsba(icrowdsourcing.annotation_types.bbox.bbox
SingleBBox
p638
(dp639
g3
Nsg4
F0.7798277982779828
sg5
I1
sg6
F0.5
sg7
F9.865824782951855e-05
sg8
F0.47451141178078443
sg9
F0.7601476014760149
sg10
F0.5226185595189287
sg11
Nsba(icrowdsourcing.annotation_types.bbox.bbox
SingleBBox
p640
(dp641
g3
Nsg4
F0.38521400778210124
sg5
I8
sg6
F0.5
sg7
F0.0007892659826361484
sg8
F0.43233895373973197
sg9
F0.3424124513618677
sg10
F0.5672287073065283
sg11
Nsba(icrowdsourcing.annotation_types.bbox.bbox
SingleBBox
p642
(dp643
g3
Nsg4
F0.8054474708171206
sg5
I1
sg6
F0.5
sg7
F9.865824782951855e-05
sg8
F0.4738434932987462
sg9
F0.7412451361867705
sg10
F0.5188067444876783
sg11
Nsba(icrowdsourcing.annotation_types.bbox.bbox
SingleBBox
p644
(dp645
g3
Nsg4
F0.5166051660516606
sg5
I1
sg6
F0.5
sg7
F9.865824782951855e-05
sg8
F0.4570179035123685
sg9
F0.49692496924969254
sg10
F0.5116851168511686
sg11
Nsba(icrowdsourcing.annotation_types.bbox.bbox
SingleBBox
p646
(dp647
g3
Nsg4
F0.8671586715867159
sg5
I2
sg6
F0.5
sg7
F0.0001973164956590371
sg8
F0.4635779691130245
sg9
F0.8523985239852399
sg10
F0.5051250512505125
sg11
Nsba(icrowdsourcing.annotation_types.bbox.bbox
SingleBBox
p648
(dp649
g3
Nsg4
F0.5350194552529183
sg5
I1
sg6
F0.5
sg7
F9.865824782951855e-05
sg8
F0.44617380025940334
sg9
F0.4844357976653696
sg10
F0.49805447470817116
sg11
Nsba(icrowdsourcing.annotation_types.bbox.bbox
SingleBBox
p650
(dp651
g3
Nsg4
F0.8793774319066149
sg5
I1
sg6
F0.5
sg7
F9.865824782951855e-05
sg8
F0.45309122351923903
sg9
F0.8424124513618676
sg10
F0.5015131863380892
sg11
Nsba(icrowdsourcing.annotation_types.bbox.bbox
SingleBBox
p652
(dp653
g3
Nsg4
F0.8216482164821649
sg5
I93
sg6
F0.5
sg7
F0.009175217048145225
sg8
F0.47888478884788854
sg9
F0.7675276752767527
sg10
F0.7128604619379527
sg11
Nsba(icrowdsourcing.annotation_types.bbox.bbox
SingleBBox
p654
(dp655
g3
Nsg4
F0.9990468305699964
sg5
I14
sg6
F0.5
sg7
F0.0013812154696132596
sg8
F0.5010893246187363
sg9
F0.8617919286092123
sg10
F0.7538126361655774
sg11
Nsba(icrowdsourcing.annotation_types.bbox.bbox
SingleBBox
p656
(dp657
g3
Nsg4
F0.006150061500614989
sg5
I3
sg6
F0.5
sg7
F0.00029597474348855567
sg8
F0.4592045920459204
sg9
F0.0
sg10
F0.5750990843241766
sg11
Nsba(icrowdsourcing.annotation_types.bbox.bbox
SingleBBox
p658
(dp659
g3
Nsg4
F0.9028290282902827
sg5
I6
sg6
F0.5
sg7
F0.0005919494869771113
sg8
F0.4307776411097444
sg9
F0.8831488314883149
sg10
F0.5204318709853765
sg11
Nsba(icrowdsourcing.annotation_types.bbox.bbox
SingleBBox
p660
(dp661
g3
Nsg4
F0.9175891758917587
sg5
I1
sg6
F0.5
sg7
F9.865824782951855e-05
sg8
F0.41547082137488034
sg9
F0.8634686346863468
sg10
F0.5466721333880006
sg11
Nsba(icrowdsourcing.annotation_types.bbox.bbox
SingleBBox
p662
(dp663
g3
Nsg4
F0.29028290282902824
sg5
I1
sg6
F0.5
sg7
F9.865824782951855e-05
sg8
F0.4242175755090885
sg9
F0.27921279212792127
sg10
F0.47451141178078443
sg11
Nsba(icrowdsourcing.annotation_types.bbox.bbox
SingleBBox
p664
(dp665
g3
Nsg4
F0.3038130381303813
sg5
I1
sg6
F0.5
sg7
F9.865824782951855e-05
sg8
F0.42203088697553637
sg9
F0.2730627306273063
sg10
F0.4876315429820965
sg11
Nsba(icrowdsourcing.annotation_types.bbox.bbox
SingleBBox
p666
(dp667
g3
Nsg4
F0.5412054120541205
sg5
I7
sg6
F0.5
sg7
F0.0006906077348066298
sg8
F0.45483121497881646
sg9
F0.49692496924969254
sg10
F0.6428864288642886
sg11
Nsba(icrowdsourcing.annotation_types.bbox.bbox
SingleBBox
p668
(dp669
g3
Nsg4
F0.44772447724477243
sg5
I2
sg6
F0.5
sg7
F0.0001973164956590371
sg8
F0.4351510181768485
sg9
F0.4305043050430504
sg10
F0.5422987563208964
sg11
Nsba(icrowdsourcing.annotation_types.bbox.bbox
SingleBBox
p670
(dp671
g3
Nsg4
F0.4428044280442805
sg5
I2
sg6
F0.5
sg7
F0.0001973164956590371
sg8
F0.4438977723110564
sg9
F0.42558425584255843
sg10
F0.5226185595189285
sg11
Nsba(icrowdsourcing.annotation_types.bbox.bbox
SingleBBox
p672
(dp673
g3
Nsg4
F0.44403444034440354
sg5
I1
sg6
F0.5
sg7
F9.865824782951855e-05
sg8
F0.45483121497881646
sg9
F0.43296432964329645
sg10
F0.5160584939182725
sg11
Nsba(icrowdsourcing.annotation_types.bbox.bbox
SingleBBox
p674
(dp675
g3
Nsg4
F0.9149129381918819
sg5
I1
sg6
F0.5
sg7
F9.865824782951855e-05
sg8
F0.8086903785704523
sg9
F0.9149129381918819
sg10
F0.8086903785704523
sg11
Nsba(icrowdsourcing.annotation_types.bbox.bbox
SingleBBox
p676
(dp677
g3
Nsg4
F0.4366543665436655
sg5
I1
sg6
F0.5
sg7
F9.865824782951855e-05
sg8
F0.45045783791171234
sg9
F0.42312423124231235
sg10
F0.5094984283176165
sg11
Nsba(icrowdsourcing.annotation_types.bbox.bbox
SingleBBox
p678
(dp679
g3
Nsg4
F0.028290282902829
sg5
I1
sg6
F0.5
sg7
F9.865824782951855e-05
sg8
F0.48544485444854446
sg9
F0.017220172201722
sg10
F0.5204318709853765
sg11
Nsba(icrowdsourcing.annotation_types.bbox.bbox
SingleBBox
p680
(dp681
g3
Nsg4
F0.03813038130381301
sg5
I8
sg6
F0.5
sg7
F0.0007892659826361484
sg8
F0.4438977723110564
sg9
F0.015990159901599
sg10
F0.5138718053847205
sg11
Nsba(icrowdsourcing.annotation_types.bbox.bbox
SingleBBox
p682
(dp683
g3
Nsg4
F0.8720787207872078
sg5
I1
sg6
F0.5
sg7
F9.865824782951855e-05
sg8
F0.31706983736504035
sg9
F0.33456334563345635
sg10
F0.9986111111111111
sg11
Nsba(icrowdsourcing.annotation_types.bbox.bbox
SingleBBox
p684
(dp685
g3
Nsg4
F0.4489544895448955
sg5
I29
sg6
F0.5
sg7
F0.002861089187056038
sg8
F0.4504578379117125
sg9
F0.3751537515375153
sg10
F0.6713133798004647
sg11
Nsba(icrowdsourcing.annotation_types.bbox.bbox
SingleBBox
p686
(dp687
g3
Nsg4
F0.43419434194341944
sg5
I12
sg6
F0.5
sg7
F0.0011838989739542227
sg8
F0.4570179035123684
sg9
F0.39606396063960647
sg10
F0.7544075440754408
sg11
Nsba(icrowdsourcing.annotation_types.bbox.bbox
SingleBBox
p688
(dp689
g3
Nsg4
F0.45633456334563344
sg5
I84
sg6
F0.5
sg7
F0.008287292817679558
sg8
F0.39141724750580836
sg9
F0.3603936039360393
sg10
F0.951209512095121
sg11
Nsba(icrowdsourcing.annotation_types.bbox.bbox
SingleBBox
p690
(dp691
g3
Nsg4
F0.4366543665436655
sg5
I1
sg6
F0.5
sg7
F9.865824782951855e-05
sg8
F0.45264452644526454
sg9
F0.4083640836408364
sg10
F0.6472598059313928
sg11
Nsba(icrowdsourcing.annotation_types.bbox.bbox
SingleBBox
p692
(dp693
g3
Nsg4
F0.3603936039360394
sg5
I1
sg6
F0.5
sg7
F9.865824782951855e-05
sg8
F0.46139128057947243
sg9
F0.3419434194341943
sg10
F0.7150471504715047
sg11
Nsba(icrowdsourcing.annotation_types.bbox.bbox
SingleBBox
p694
(dp695
g3
Nsg4
F0.39606396063960647
sg5
I4
sg6
F0.5
sg7
F0.0003946329913180742
sg8
F0.5357386907202406
sg9
F0.3444034440344403
sg10
F0.7872078720787209
sg11
Nsba(icrowdsourcing.annotation_types.bbox.bbox
SingleBBox
p696
(dp697
g3
Nsg4
F0.3075030750307503
sg5
I22
sg6
F0.5
sg7
F0.002170481452249408
sg8
F0.4592045920459204
sg9
F0.2607626076260763
sg10
F0.6844335110017766
sg11
Nsba(icrowdsourcing.annotation_types.bbox.bbox
SingleBBox
p698
(dp699
g3
Nsg4
F0.5658056580565806
sg5
I135
sg6
F0.5
sg7
F0.013318863456985004
sg8
F0.4766981003143365
sg9
F0.42927429274292733
sg10
F0.940276069427361
sg11
Nsba(icrowdsourcing.annotation_types.bbox.bbox
SingleBBox
p700
(dp701
g3
Nsg4
F0.23799420106030214
sg5
I5
sg6
F0.5
sg7
F0.0004932912391475928
sg8
F0.4368004367444931
sg9
F0.2072816703477714
sg10
F0.7032487031927595
sg11
Nsba(icrowdsourcing.annotation_types.bbox.bbox
SingleBBox
p702
(dp703
g3
Nsg4
F0.156913119979221
sg5
I68
sg6
F0.5
sg7
F0.006708760852407261
sg8
F0.4215124214564778
sg9
F0.11637257943868047
sg10
F0.7731367730808294
sg11
Nsba(icrowdsourcing.annotation_types.bbox.bbox
SingleBBox
p704
(dp705
g3
Nsg4
F0.24846248462484627
sg5
I1
sg6
F0.5
sg7
F9.865824782951855e-05
sg8
F0.47232472324723246
sg9
F0.2312423124231242
sg10
F0.5269919365860325
sg11
Nsba(icrowdsourcing.annotation_types.bbox.bbox
SingleBBox
p706
(dp707
g3
Nsg4
F0.6543665436654367
sg5
I1
sg6
F0.5
sg7
F9.865824782951855e-05
sg8
F0.48107147738144046
sg9
F0.6371463714637147
sg10
F0.5335520021866885
sg11
Nsba(icrowdsourcing.annotation_types.bbox.bbox
SingleBBox
p708
(dp709
g3
Nsg4
F0.264591439688716
sg5
I1
sg6
F0.5
sg7
F9.865824782951855e-05
sg8
F0.4738434932987461
sg9
F0.2217898832684825
sg10
F0.5291828793774319
sg11
Nsba(icrowdsourcing.annotation_types.bbox.bbox
SingleBBox
p710
(dp711
g3
Nsg4
F0.6926070038910506
sg5
I1
sg6
F0.5
sg7
F9.865824782951855e-05
sg8
F0.4738434932987462
sg9
F0.6225680933852139
sg10
F0.5603112840466926
sg11
Nsba(icrowdsourcing.annotation_types.bbox.bbox
SingleBBox
p712
(dp713
g3
Nsg4
F0.03567035670356702
sg5
I9
sg6
F0.5
sg7
F0.000887924230465667
sg8
F0.4985649856498565
sg9
F0.014760147601475995
sg10
F0.6100861008610087
sg11
Nsba(icrowdsourcing.annotation_types.bbox.bbox
SingleBBox
p714
(dp715
g3
Nsg4
F0.2865928659286593
sg5
I7
sg6
F0.5
sg7
F0.0006906077348066298
sg8
F0.4635779691130245
sg9
F0.2533825338253382
sg10
F0.7850211835451688
sg11
Nsba(icrowdsourcing.annotation_types.bbox.bbox
SingleBBox
p716
(dp717
g3
Nsg4
F0.6152597402597403
sg5
I12
sg6
F0.5
sg7
F0.0011838989739542227
sg8
F0.4675324675324676
sg9
F0.5811688311688312
sg10
F0.787878787878788
sg11
Nsba(icrowdsourcing.annotation_types.bbox.bbox
SingleBBox
p718
(dp719
g3
Nsg4
F0.9606396063960639
sg5
I2
sg6
F0.5
sg7
F0.0001973164956590371
sg8
F0.44171108377750445
sg9
F0.9175891758917588
sg10
F0.5116851168511686
sg11
Nsba(icrowdsourcing.annotation_types.bbox.bbox
SingleBBox
p720
(dp721
g3
Nsg4
F0.9606396063960639
sg5
I6
sg6
F0.5
sg7
F0.0005919494869771113
sg8
F0.46576465764657654
sg9
F0.939729397293973
sg10
F0.6057127237939047
sg11
Nsba(icrowdsourcing.annotation_types.bbox.bbox
SingleBBox
p722
(dp723
g3
Nsg4
F0.5461254612546125
sg5
I38
sg6
F0.5
sg7
F0.003749013417521705
sg8
F0.4504578379117125
sg9
F0.4809348093480935
sg10
F0.7675276752767527
sg11
Nsba(icrowdsourcing.annotation_types.bbox.bbox
SingleBBox
p724
(dp725
g3
Nsg4
F0.9729397293972939
sg5
I2
sg6
F0.5
sg7
F0.0001973164956590371
sg8
F0.4264042640426404
sg9
F0.9163591635916359
sg10
F0.5379253792537925
sg11
Nsba(icrowdsourcing.annotation_types.bbox.bbox
SingleBBox
p726
(dp727
g3
Nsg4
F0.9532595325953259
sg5
I3
sg6
F0.5
sg7
F0.00029597474348855567
sg8
F0.4351510181768485
sg9
F0.9286592865928661
sg10
F0.5313653136531366
sg11
Nsba(icrowdsourcing.annotation_types.bbox.bbox
SingleBBox
p728
(dp729
g3
Nsg4
F0.8007380073800737
sg5
I8
sg6
F0.5
sg7
F0.0007892659826361484
sg8
F0.4395243952439524
sg9
F0.7773677736777367
sg10
F0.5138718053847205
sg11
Nsba(icrowdsourcing.annotation_types.bbox.bbox
SingleBBox
p730
(dp731
g3
Nsg4
F0.3788437884378844
sg5
I2
sg6
F0.5
sg7
F0.0001973164956590371
sg8
F0.42859095257619245
sg9
F0.36531365313653136
sg10
F0.45920459204592057
sg11
Nsba(icrowdsourcing.annotation_types.bbox.bbox
SingleBBox
p732
(dp733
g3
Nsg4
F0.6949569495694956
sg5
I10
sg6
F0.5
sg7
F0.0009865824782951855
sg8
F0.4395243952439524
sg9
F0.6654366543665436
sg10
F0.5269919365860326
sg11
Nsba(icrowdsourcing.annotation_types.bbox.bbox
SingleBBox
p734
(dp735
g3
Nsg4
F0.6826568265682657
sg5
I2
sg6
F0.5
sg7
F0.0001973164956590371
sg8
F0.45045783791171234
sg9
F0.6703567035670357
sg10
F0.5094984283176165
sg11
Nsba(icrowdsourcing.annotation_types.bbox.bbox
SingleBBox
p736
(dp737
g3
Nsg4
F0.11519607843137256
sg5
I1
sg6
F0.5
sg7
F9.865824782951855e-05
sg8
F0.20479302832244006
sg9
F0.07747820311901613
sg10
F0.7429193899782133
sg11
Nsba(icrowdsourcing.annotation_types.bbox.bbox
SingleBBox
p738
(dp739
g3
Nsg4
F0.3099630996309963
sg5
I8
sg6
F0.5
sg7
F0.0007892659826361484
sg8
F0.4854448544485445
sg9
F0.2767527675276752
sg10
F0.7194205275386086
sg11
Nsba(icrowdsourcing.annotation_types.bbox.bbox
SingleBBox
p740
(dp741
g3
Nsg4
F0.27060270602706027
sg5
I2
sg6
F0.5
sg7
F0.0001973164956590371
sg8
F0.48981823151564846
sg9
F0.24969249692496928
sg10
F0.7019270192701927
sg11
Nsba(icrowdsourcing.annotation_types.bbox.bbox
SingleBBox
p742
(dp743
g3
Nsg4
F0.2767527675276753
sg5
I1
sg6
F0.5
sg7
F9.865824782951855e-05
sg8
F0.45920459204592057
sg9
F0.2607626076260763
sg10
F0.7915812491458248
sg11
Nsba(icrowdsourcing.annotation_types.bbox.bbox
SingleBBox
p744
(dp745
g3
Nsg4
F0.2472324723247233
sg5
I2
sg6
F0.5
sg7
F0.0001973164956590371
sg8
F0.46576465764657654
sg9
F0.21402214022140226
sg10
F0.806888068880689
sg11
Nsba(icrowdsourcing.annotation_types.bbox.bbox
SingleBBox
p746
(dp747
g3
Nsg4
F0.4907749077490774
sg5
I6
sg6
F0.5
sg7
F0.0005919494869771113
sg8
F0.4482711493781605
sg9
F0.46371463714637146
sg10
F0.5204318709853766
sg11
Nsba(icrowdsourcing.annotation_types.bbox.bbox
SingleBBox
p748
(dp749
g3
Nsg4
F0.34932349323493234
sg5
I52
sg6
F0.5
sg7
F0.005130228887134964
sg8
F0.5029383627169605
sg9
F0.2829028290282903
sg10
F0.7128604619379527
sg11
Nsba(icrowdsourcing.annotation_types.bbox.bbox
SingleBBox
p750
(dp751
g3
Nsg4
F0.9234978865639876
sg5
I134
sg6
F0.5
sg7
F0.013220205209155485
sg8
F0.4935844935844936
sg9
F0.871900834966936
sg10
F0.7622167622167622
sg11
Nsba(icrowdsourcing.annotation_types.bbox.bbox
SingleBBox
p752
(dp753
g3
Nsg4
F0.3948339483394833
sg5
I4
sg6
F0.5
sg7
F0.0003946329913180742
sg8
F0.4264042640426404
sg9
F0.36531365313653136
sg10
F0.5466721333880006
sg11
Nsba(icrowdsourcing.annotation_types.bbox.bbox
SingleBBox
p754
(dp755
g3
Nsg4
F0.3874538745387454
sg5
I1
sg6
F0.5
sg7
F9.865824782951855e-05
sg8
F0.44171108377750445
sg9
F0.37023370233702335
sg10
F0.5204318709853765
sg11
Nsba(icrowdsourcing.annotation_types.bbox.bbox
SingleBBox
p756
(dp757
g3
Nsg4
F0.3849938499384994
sg5
I1
sg6
F0.5
sg7
F9.865824782951855e-05
sg8
F0.4592045920459204
sg9
F0.37761377613776137
sg10
F0.5182451824518245
sg11
Nsba(icrowdsourcing.annotation_types.bbox.bbox
SingleBBox
p758
(dp759
g3
Nsg4
F0.1131611316113161
sg5
I35
sg6
F0.5
sg7
F0.003453038674033149
sg8
F0.41765750990843237
sg9
F0.07749077490774905
sg10
F0.6319529861965287
sg11
Nsba(icrowdsourcing.annotation_types.bbox.bbox
SingleBBox
p760
(dp761
g3
Nsg4
F0.44318181818181834
sg5
I5
sg6
F0.5
sg7
F0.0004932912391475928
sg8
F0.4444444444444444
sg9
F0.41071428571428575
sg10
F0.5339105339105339
sg11
Nsba(icrowdsourcing.annotation_types.bbox.bbox
SingleBBox
p762
(dp763
g3
Nsg4
F0.4317343173431734
sg5
I1
sg6
F0.5
sg7
F9.865824782951855e-05
sg8
F0.45920459204592046
sg9
F0.42189421894218954
sg10
F0.5138718053847205
sg11
Nsba(icrowdsourcing.annotation_types.bbox.bbox
SingleBBox
p764
(dp765
g3
Nsg4
F0.4551045510455104
sg5
I2
sg6
F0.5
sg7
F0.0001973164956590371
sg8
F0.4089107557742245
sg9
F0.4182041820418204
sg10
F0.5160584939182725
sg11
Nsba(icrowdsourcing.annotation_types.bbox.bbox
SingleBBox
p766
(dp767
g3
Nsg4
F0.99921875
sg5
I2
sg6
F0.5
sg7
F0.0001973164956590371
sg8
F0.6333606333606332
sg9
F0.9849229479890489
sg10
F0.6945126945126946
sg11
Nsba(icrowdsourcing.annotation_types.bbox.bbox
SingleBBox
p768
(dp769
g3
Nsg4
F0.3603936039360394
sg5
I6
sg6
F0.5
sg7
F0.0005919494869771113
sg8
F0.4264042640426404
sg9
F0.33456334563345635
sg10
F0.5313653136531366
sg11
Nsba(icrowdsourcing.annotation_types.bbox.bbox
SingleBBox
p770
(dp771
g3
Nsg4
F0.5075913726306354
sg5
I35
sg6
F0.5
sg7
F0.003453038674033149
sg8
F0.42229507102073693
sg9
F0.4484489219636664
sg10
F0.6866750461941292
sg11
Nsba(icrowdsourcing.annotation_types.bbox.bbox
SingleBBox
p772
(dp773
g3
Nsg4
F0.8005217942804428
sg5
I1
sg6
F0.5
sg7
F9.865824782951855e-05
sg8
F0.48943385267186
sg9
F0.8005217942804428
sg10
F0.48943385267186
sg11
Nsba(icrowdsourcing.annotation_types.bbox.bbox
SingleBBox
p774
(dp775
g3
Nsg4
F0.8745387453874539
sg5
I3
sg6
F0.5
sg7
F0.00029597474348855567
sg8
F0.44389777231105654
sg9
F0.8511685116851169
sg10
F0.5248052480524805
sg11
Nsba(icrowdsourcing.annotation_types.bbox.bbox
SingleBBox
p776
(dp777
g3
Nsg4
F0.8917589175891759
sg5
I169
sg6
F0.5
sg7
F0.016673243883188634
sg8
F0.41765750990843237
sg9
F0.8216482164821649
sg10
F0.7544075440754408
sg11
Nsba(icrowdsourcing.annotation_types.bbox.bbox
SingleBBox
p778
(dp779
g3
Nsg4
F0.32718327183271834
sg5
I1
sg6
F0.5
sg7
F9.865824782951855e-05
sg8
F0.4723247232472324
sg9
F0.29028290282902824
sg10
F0.5313653136531366
sg11
Nsba(icrowdsourcing.annotation_types.bbox.bbox
SingleBBox
p780
(dp781
g3
Nsg4
F0.7503075030750308
sg5
I3
sg6
F0.5
sg7
F0.00029597474348855567
sg8
F0.42859095257619245
sg9
F0.7330873308733088
sg10
F0.5182451824518245
sg11
Nsba(icrowdsourcing.annotation_types.bbox.bbox
SingleBBox
p782
(dp783
g3
Nsg4
F0.015990159901599
sg5
I2
sg6
F0.5
sg7
F0.0001973164956590371
sg8
F0.4723247232472324
sg9
F0.0049200492004919825
sg10
F0.7959546262129288
sg11
Nsba(icrowdsourcing.annotation_types.bbox.bbox
SingleBBox
p784
(dp785
g3
Nsg4
F0.2853628536285363
sg5
I39
sg6
F0.5
sg7
F0.0038476716653512233
sg8
F0.4242175755090885
sg9
F0.10824108241082411
sg10
F0.9986111111111111
sg11
Nsba(icrowdsourcing.annotation_types.bbox.bbox
SingleBBox
p786
(dp787
g3
Nsg4
F0.99921875
sg5
I15
sg6
F0.5
sg7
F0.0014798737174427782
sg8
F0.5357386907202405
sg9
F0.9815498154981551
sg10
F0.6472598059313927
sg11
Nsba(icrowdsourcing.annotation_types.bbox.bbox
SingleBBox
p788
(dp789
g3
Nsg4
F0.7313997477931904
sg5
I1
sg6
F0.5
sg7
F9.865824782951855e-05
sg8
F0.6453131704716617
sg9
F0.6633039092055485
sg10
F0.7887908221460347
sg11
Nsba(icrowdsourcing.annotation_types.bbox.bbox
SingleBBox
p790
(dp791
g3
Nsg4
F0.4022140221402214
sg5
I119
sg6
F0.5
sg7
F0.011740331491712707
sg8
F0.4635779691130245
sg9
F0.3136531365313653
sg10
F0.8506218395517288
sg11
Nsba(icrowdsourcing.annotation_types.bbox.bbox
SingleBBox
p792
(dp793
g3
Nsg4
F0.99921875
sg5
I1
sg6
F0.5
sg7
F9.865824782951855e-05
sg8
F0.5641656416564165
sg9
F0.9864698646986471
sg10
F0.6363263632636327
sg11
Nsba(icrowdsourcing.annotation_types.bbox.bbox
SingleBBox
p794
(dp795
g3
Nsg4
F0.07134071340713403
sg5
I1
sg6
F0.5
sg7
F9.865824782951855e-05
sg8
F0.5073117397840646
sg9
F0.050430504305043033
sg10
F0.6057127237939047
sg11
Nsba(icrowdsourcing.annotation_types.bbox.bbox
SingleBBox
p796
(dp797
g3
Nsg4
F0.25092250922509224
sg5
I1
sg6
F0.5
sg7
F9.865824782951855e-05
sg8
F0.43077764110974437
sg9
F0.23739237392373927
sg10
F0.47451141178078443
sg11
Nsba(icrowdsourcing.annotation_types.bbox.bbox
SingleBBox
p798
(dp799
g3
Nsg4
F0.25953259532595324
sg5
I1
sg6
F0.5
sg7
F9.865824782951855e-05
sg8
F0.4154708213748804
sg9
F0.23493234932349322
sg10
F0.47232472324723246
sg11
Nsba(icrowdsourcing.annotation_types.bbox.bbox
SingleBBox
p800
(dp801
g3
Nsg4
F0.04797047970479702
sg5
I2
sg6
F0.5
sg7
F0.0001973164956590371
sg8
F0.4701380347136805
sg9
F0.03444034440344401
sg10
F0.5138718053847205
sg11
Nsba(icrowdsourcing.annotation_types.bbox.bbox
SingleBBox
p802
(dp803
g3
Nsg4
F0.05289052890528902
sg5
I7
sg6
F0.5
sg7
F0.0006906077348066298
sg8
F0.4592045920459204
sg9
F0.029520295202952008
sg10
F0.5182451824518245
sg11
Nsba(icrowdsourcing.annotation_types.bbox.bbox
SingleBBox
p804
(dp805
g3
Nsg4
F0.99921875
sg5
I12
sg6
F0.5
sg7
F0.0011838989739542227
sg8
F0.48544485444854446
sg9
F0.985239852398524
sg10
F0.5969659696596966
sg11
Nsba(icrowdsourcing.annotation_types.bbox.bbox
SingleBBox
p806
(dp807
g3
Nsg4
F0.06642066420664204
sg5
I34
sg6
F0.5
sg7
F0.0033543804262036307
sg8
F0.43077764110974454
sg9
F0.020910209102091005
sg10
F0.5816591499248326
sg11
Nsba(icrowdsourcing.annotation_types.bbox.bbox
SingleBBox
p808
(dp809
g3
Nsg4
F0.04920049200492003
sg5
I1
sg6
F0.5
sg7
F9.865824782951855e-05
sg8
F0.47451141178078443
sg9
F0.040590405904059025
sg10
F0.5138718053847204
sg11
Nsba(icrowdsourcing.annotation_types.bbox.bbox
SingleBBox
p810
(dp811
g3
Nsg4
F0.99921875
sg5
I35
sg6
F0.5
sg7
F0.003453038674033149
sg8
F0.4630965213740892
sg9
F0.9655737089178753
sg10
F0.5800532217668488
sg11
Nsba(icrowdsourcing.annotation_types.bbox.bbox
SingleBBox
p812
(dp813
g3
Nsg4
F0.0510466528720543
sg5
I3
sg6
F0.5
sg7
F0.00029597474348855567
sg8
F0.4767493084563717
sg9
F0.023631765743221945
sg10
F0.5293652562679522
sg11
Nsba(icrowdsourcing.annotation_types.bbox.bbox
SingleBBox
p814
(dp815
g3
Nsg4
F0.1217712177121771
sg5
I2
sg6
F0.5
sg7
F0.0001973164956590371
sg8
F0.4351510181768485
sg9
F0.1008610086100861
sg10
F0.7237939046057128
sg11
Nsba(icrowdsourcing.annotation_types.bbox.bbox
SingleBBox
p816
(dp817
g3
Nsg4
F0.7933579335793357
sg5
I1
sg6
F0.5
sg7
F9.865824782951855e-05
sg8
F0.4264042640426404
sg9
F0.7933579335793357
sg10
F0.5138718053847205
sg11
Nsba(icrowdsourcing.annotation_types.bbox.bbox
SingleBBox
p818
(dp819
g3
Nsg4
F0.7119609086715867
sg5
I1
sg6
F0.5
sg7
F9.865824782951855e-05
sg8
F0.8261838868388683
sg9
F0.7119609086715867
sg10
F0.8261838868388683
sg11
Nsba(icrowdsourcing.annotation_types.bbox.bbox
SingleBBox
p820
(dp821
g3
Nsg4
F0.1242312423124231
sg5
I125
sg6
F0.5
sg7
F0.012332280978689818
sg8
F0.4329643296432964
sg9
F0.011070110701106995
sg10
F0.8834221675550089
sg11
Nsba(icrowdsourcing.annotation_types.bbox.bbox
SingleBBox
p822
(dp823
g3
Nsg4
F0.3430012610340478
sg5
I19
sg6
F0.5
sg7
F0.0018745067087608525
sg8
F0.46607817042787586
sg9
F0.28499369482976034
sg10
F0.640941558406018
sg11
Nsba(icrowdsourcing.annotation_types.bbox.bbox
SingleBBox
p824
(dp825
g3
Nsg4
F0.7060270602706027
sg5
I14
sg6
F0.5
sg7
F0.0013812154696132596
sg8
F0.44171108377750445
sg9
F0.6789667896678967
sg10
F0.5291786251195846
sg11
Nsba(icrowdsourcing.annotation_types.bbox.bbox
SingleBBox
p826
(dp827
g3
Nsg4
F0.99921875
sg5
I2
sg6
F0.5
sg7
F0.0001973164956590371
sg8
F0.45920459204592057
sg9
F0.9840098400984012
sg10
F0.5401120677873446
sg11
Nsba(icrowdsourcing.annotation_types.bbox.bbox
SingleBBox
p828
(dp829
g3
Nsg4
F0.7244772447724477
sg5
I100
sg6
F0.5
sg7
F0.009865824782951855
sg8
F0.4592045920459204
sg9
F0.6039360393603938
sg10
F0.7872078720787209
sg11
Nsba(icrowdsourcing.annotation_types.bbox.bbox
SingleBBox
p830
(dp831
g3
Nsg4
F0.009840098400983986
sg5
I11
sg6
F0.5
sg7
F0.001085240726124704
sg8
F0.4635779691130245
sg9
F0.0
sg10
F0.5554188875222085
sg11
Nsba(icrowdsourcing.annotation_types.bbox.bbox
SingleBBox
p832
(dp833
g3
Nsg4
F0.04059040590405904
sg5
I9
sg6
F0.5
sg7
F0.000887924230465667
sg8
F0.45920459204592046
sg9
F0.0
sg10
F0.5444854448544486
sg11
Nsba(icrowdsourcing.annotation_types.bbox.bbox
SingleBBox
p834
(dp835
g3
Nsg4
F0.10688996782489846
sg5
I47
sg6
F0.5
sg7
F0.004636937647987372
sg8
F0.3943355119825709
sg9
F0.07012526194254554
sg10
F0.69281045751634
sg11
Nsba(icrowdsourcing.annotation_types.bbox.bbox
SingleBBox
p836
(dp837
g3
Nsg4
F0.18041937958960436
sg5
I64
sg6
F0.5
sg7
F0.006314127861089187
sg8
F0.31154684095860574
sg9
F0.11546839919744749
sg10
F0.7363834422657953
sg11
Nsba(icrowdsourcing.annotation_types.bbox.bbox
SingleBBox
p838
(dp839
g3
Nsg4
F0.2041820418204182
sg5
I7
sg6
F0.5
sg7
F0.0006906077348066298
sg8
F0.3848571819051524
sg9
F0.15990159901599013
sg10
F0.5313653136531366
sg11
Nsba(icrowdsourcing.annotation_types.bbox.bbox
SingleBBox
p840
(dp841
g3
Nsg4
F0.5202952029520296
sg5
I5
sg6
F0.5
sg7
F0.0004932912391475928
sg8
F0.4351510181768485
sg9
F0.4846248462484626
sg10
F0.5838458384583844
sg11
Nsba(icrowdsourcing.annotation_types.bbox.bbox
SingleBBox
p842
(dp843
g3
Nsg4
F0.5313653136531364
sg5
I3
sg6
F0.5
sg7
F0.00029597474348855567
sg8
F0.42203088697553637
sg9
F0.47232472324723246
sg10
F0.6188328549952166
sg11
Nsba(icrowdsourcing.annotation_types.bbox.bbox
SingleBBox
p844
(dp845
g3
Nsg4
F0.011070110701106993
sg5
I3
sg6
F0.5
sg7
F0.00029597474348855567
sg8
F0.47232472324723257
sg9
F0.0012300123001229846
sg10
F0.5248052480524805
sg11
Nsba(icrowdsourcing.annotation_types.bbox.bbox
SingleBBox
p846
(dp847
g3
Nsg4
F0.04182041820418203
sg5
I1
sg6
F0.5
sg7
F9.865824782951855e-05
sg8
F0.4723247232472324
sg9
F0.03444034440344401
sg10
F0.5182451824518245
sg11
Nsba(icrowdsourcing.annotation_types.bbox.bbox
SingleBBox
p848
(dp849
g3
Nsg4
F0.04143400450010555
sg5
I3
sg6
F0.5
sg7
F0.00029597474348855567
sg8
F0.4586404586404586
sg9
F0.026691989758090794
sg10
F0.5197925197925197
sg11
Nsba(icrowdsourcing.annotation_types.bbox.bbox
SingleBBox
p850
(dp851
g3
Nsg4
F0.1094710947109471
sg5
I1
sg6
F0.5
sg7
F9.865824782951855e-05
sg8
F0.4635779691130245
sg9
F0.09225092250922505
sg10
F0.5182451824518245
sg11
Nsba(icrowdsourcing.annotation_types.bbox.bbox
SingleBBox
p852
(dp853
g3
Nsg4
F0.05781057810578103
sg5
I48
sg6
F0.5
sg7
F0.004735595895816891
sg8
F0.4701380347136805
sg9
F0.02583025830258301
sg10
F0.6100861008610087
sg11
Nsba(icrowdsourcing.annotation_types.bbox.bbox
SingleBBox
p854
(dp855
g3
Nsg4
F0.013530135301352997
sg5
I1
sg6
F0.5
sg7
F9.865824782951855e-05
sg8
F0.44171108377750445
sg9
F0.003690036900368987
sg10
F0.46139128057947243
sg11
Nsba(icrowdsourcing.annotation_types.bbox.bbox
SingleBBox
p856
(dp857
g3
Nsg4
F0.05781057810578103
sg5
I195
sg6
F0.5
sg7
F0.019238358326756116
sg8
F0.45264452644526443
sg9
F0.022140221402214007
sg10
F0.7063003963372967
sg11
Nsba(icrowdsourcing.annotation_types.bbox.bbox
SingleBBox
p858
(dp859
g3
Nsg4
F0.1203249923124231
sg5
I1
sg6
F0.5
sg7
F9.865824782951855e-05
sg8
F0.7518364766981004
sg9
F0.1203249923124231
sg10
F0.7518364766981004
sg11
Nsba(icrowdsourcing.annotation_types.bbox.bbox
SingleBBox
p860
(dp861
g3
Nsg4
F0.5921840854719573
sg5
I80
sg6
F0.5
sg7
F0.007892659826361484
sg8
F0.36383442265795213
sg9
F0.5051742815503886
sg10
F0.7908496732026143
sg11
Nsba(icrowdsourcing.annotation_types.bbox.bbox
SingleBBox
p862
(dp863
g3
Nsg4
F0.8127723207660751
sg5
I49
sg6
F0.5
sg7
F0.004834254143646409
sg8
F0.40740740740740744
sg9
F0.5934095756680356
sg10
F0.8605664488017429
sg11
Nsba(icrowdsourcing.annotation_types.bbox.bbox
SingleBBox
p864
(dp865
g3
Nsg4
F0.7835178351783517
sg5
I7
sg6
F0.5
sg7
F0.0006906077348066298
sg8
F0.4351510181768485
sg9
F0.7281672816728166
sg10
F0.6078994123274566
sg11
Nsba(icrowdsourcing.annotation_types.bbox.bbox
SingleBBox
p866
(dp867
g3
Nsg4
F0.929889298892989
sg5
I1
sg6
F0.5
sg7
F9.865824782951855e-05
sg8
F0.47451141178078443
sg9
F0.9138991389913901
sg10
F0.5094984283176165
sg11
Nsba(icrowdsourcing.annotation_types.bbox.bbox
SingleBBox
p868
(dp869
g3
Nsg4
F0.27742749054224464
sg5
I192
sg6
F0.5
sg7
F0.018942383583267563
sg8
F0.441417949046343
sg9
F0.1563682219419924
sg10
F0.788902886695215
sg11
Nsba(icrowdsourcing.annotation_types.bbox.bbox
SingleBBox
p870
(dp871
g3
Nsg4
F0.7515375153751538
sg5
I1
sg6
F0.5
sg7
F9.865824782951855e-05
sg8
F0.37611042777094433
sg9
F0.7515375153751538
sg10
F0.3826704933716005
sg11
Nsba(icrowdsourcing.annotation_types.bbox.bbox
SingleBBox
p872
(dp873
g3
Nsg4
F0.8560885608856088
sg5
I1
sg6
F0.5
sg7
F9.865824782951855e-05
sg8
F0.4001640016400164
sg9
F0.8118081180811808
sg10
F0.5138718053847205
sg11
Nsba(icrowdsourcing.annotation_types.bbox.bbox
SingleBBox
p874
(dp875
g3
Nsg4
F0.9458794587945878
sg5
I122
sg6
F0.5
sg7
F0.012036306235201263
sg8
F0.4701380347136805
sg9
F0.853628536285363
sg10
F0.8899822331556649
sg11
Nsba(icrowdsourcing.annotation_types.bbox.bbox
SingleBBox
p876
(dp877
g3
Nsg4
F0.21894218942189422
sg5
I11
sg6
F0.5
sg7
F0.001085240726124704
sg8
F0.4329643296432964
sg9
F0.18573185731857317
sg10
F0.6538198715320486
sg11
Nsba(icrowdsourcing.annotation_types.bbox.bbox
SingleBBox
p878
(dp879
g3
Nsg4
F0.9040590405904059
sg5
I1
sg6
F0.5
sg7
F9.865824782951855e-05
sg8
F0.4570179035123684
sg9
F0.8905289052890527
sg10
F0.5160584939182725
sg11
Nsba(icrowdsourcing.annotation_types.bbox.bbox
SingleBBox
p880
(dp881
g3
Nsg4
F0.45018450184501846
sg5
I7
sg6
F0.5
sg7
F0.0006906077348066298
sg8
F0.4264042640426404
sg9
F0.39606396063960647
sg10
F0.6057127237939045
sg11
Nsba(icrowdsourcing.annotation_types.bbox.bbox
SingleBBox
p882
(dp883
g3
Nsg4
F0.4009840098400984
sg5
I6
sg6
F0.5
sg7
F0.0005919494869771113
sg8
F0.4307776411097444
sg9
F0.35301353013530135
sg10
F0.6691266912669127
sg11
Nsba(icrowdsourcing.annotation_types.bbox.bbox
SingleBBox
p884
(dp885
g3
Nsg4
F0.992619926199262
sg5
I32
sg6
F0.5
sg7
F0.0031570639305445935
sg8
F0.46795134618012846
sg9
F0.9692496924969249
sg10
F0.6232062320623206
sg11
Nsba(icrowdsourcing.annotation_types.bbox.bbox
SingleBBox
p886
(dp887
g3
Nsg4
F0.4981549815498155
sg5
I6
sg6
F0.5
sg7
F0.0005919494869771113
sg8
F0.4723247232472324
sg9
F0.46371463714637146
sg10
F0.7172338390050568
sg11
Nsba(icrowdsourcing.annotation_types.bbox.bbox
SingleBBox
p888
(dp889
g3
Nsg4
F0.5141451414514145
sg5
I8
sg6
F0.5
sg7
F0.0007892659826361484
sg8
F0.4920049200492004
sg9
F0.4710947109471094
sg10
F0.7084870848708488
sg11
Nsba(icrowdsourcing.annotation_types.bbox.bbox
SingleBBox
p890
(dp891
g3
Nsg4
F0.015990159901599
sg5
I3
sg6
F0.5
sg7
F0.00029597474348855567
sg8
F0.5882192155254886
sg9
F0.0
sg10
F0.6931802651359847
sg11
Nsba(icrowdsourcing.annotation_types.bbox.bbox
SingleBBox
p892
(dp893
g3
Nsg4
F0.8523985239852399
sg5
I3
sg6
F0.5
sg7
F0.00029597474348855567
sg8
F0.45483121497881646
sg9
F0.8290282902829029
sg10
F0.5051250512505125
sg11
Nsba(icrowdsourcing.annotation_types.bbox.bbox
SingleBBox
p894
(dp895
g3
Nsg4
F0.8543371522094926
sg5
I3
sg6
F0.5
sg7
F0.00029597474348855567
sg8
F0.44517184942716864
sg9
F0.828150572831424
sg10
F0.5528277868703402
sg11
Nsba(icrowdsourcing.annotation_types.bbox.bbox
SingleBBox
p896
(dp897
g3
Nsg4
F0.8683886838868389
sg5
I1
sg6
F0.5
sg7
F9.865824782951855e-05
sg8
F0.43077764110974454
sg9
F0.8118081180811807
sg10
F0.5401120677873446
sg11
Nsba(icrowdsourcing.annotation_types.bbox.bbox
SingleBBox
p898
(dp899
g3
Nsg4
F0.6201298701298701
sg5
I7
sg6
F0.5
sg7
F0.0006906077348066298
sg8
F0.4415584415584416
sg9
F0.5795454545454546
sg10
F0.5339105339105339
sg11
Nsba(icrowdsourcing.annotation_types.bbox.bbox
SingleBBox
p900
(dp901
g3
Nsg4
F0.6063960639606396
sg5
I1
sg6
F0.5
sg7
F9.865824782951855e-05
sg8
F0.4482711493781605
sg9
F0.5940959409594097
sg10
F0.5160584939182725
sg11
Nsba(icrowdsourcing.annotation_types.bbox.bbox
SingleBBox
p902
(dp903
g3
Nsg4
F0.6126870757531767
sg5
I3
sg6
F0.5
sg7
F0.00029597474348855567
sg8
F0.4324324323764887
sg9
F0.5881170511831522
sg10
F0.5197925197365761
sg11
Nsba(icrowdsourcing.annotation_types.bbox.bbox
SingleBBox
p904
(dp905
g3
Nsg4
F0.9840098400984008
sg5
I5
sg6
F0.5
sg7
F0.0004932912391475928
sg8
F0.4526445264452645
sg9
F0.964329643296433
sg10
F0.5707257072570726
sg11
Nsba(icrowdsourcing.annotation_types.bbox.bbox
SingleBBox
p906
(dp907
g3
Nsg4
F0.7675276752767527
sg5
I14
sg6
F0.5
sg7
F0.0013812154696132596
sg8
F0.45920459204592057
sg9
F0.7293972939729396
sg10
F0.7194205275386086
sg11
Nsba(icrowdsourcing.annotation_types.bbox.bbox
SingleBBox
p908
(dp909
g3
Nsg4
F0.7527675276752769
sg5
I11
sg6
F0.5
sg7
F0.001085240726124704
sg8
F0.5138718053847204
sg9
F0.7072570725707257
sg10
F0.7041137078037448
sg11
Nsba(icrowdsourcing.annotation_types.bbox.bbox
SingleBBox
p910
(dp911
g3
Nsg4
F0.7183271832718328
sg5
I9
sg6
F0.5
sg7
F0.000887924230465667
sg8
F0.4504578379117125
sg9
F0.6728167281672816
sg10
F0.5444854448544485
sg11
Nsba(icrowdsourcing.annotation_types.bbox.bbox
SingleBBox
p912
(dp913
g3
Nsg4
F0.7207872078720786
sg5
I7
sg6
F0.5
sg7
F0.0006906077348066298
sg8
F0.4198441984419844
sg9
F0.6592865928659286
sg10
F0.5619789531228646
sg11
Nsba(icrowdsourcing.annotation_types.bbox.bbox
SingleBBox
p914
(dp915
g3
Nsg4
F0.99921875
sg5
I49
sg6
F0.5
sg7
F0.004834254143646409
sg8
F0.3137254901960784
sg9
F0.9132625168445063
sg10
F0.7581699346405228
sg11
Nsba(icrowdsourcing.annotation_types.bbox.bbox
SingleBBox
p916
(dp917
g3
Nsg4
F0.9304193795896044
sg5
I1
sg6
F0.5
sg7
F9.865824782951855e-05
sg8
F0.4509803921568628
sg9
F0.9144880070405847
sg10
F0.6448801742919391
sg11
Nsba(icrowdsourcing.annotation_types.bbox.bbox
SingleBBox
p918
(dp919
g3
Nsg4
F0.21525215252152524
sg5
I1
sg6
F0.5
sg7
F9.865824782951855e-05
sg8
F0.4723247232472324
sg9
F0.19803198031980318
sg10
F0.5182451824518245
sg11
Nsba(icrowdsourcing.annotation_types.bbox.bbox
SingleBBox
p920
(dp921
g3
Nsg4
F0.6076260762607626
sg5
I1
sg6
F0.5
sg7
F9.865824782951855e-05
sg8
F0.4832581659149925
sg9
F0.5891758917589176
sg10
F0.5313653136531366
sg11
Nsba(icrowdsourcing.annotation_types.bbox.bbox
SingleBBox
p922
(dp923
g3
Nsg4
F0.2626459143968872
sg5
I1
sg6
F0.5
sg7
F9.865824782951855e-05
sg8
F0.45654993514915687
sg9
F0.16147859922178992
sg10
F0.5395590142671854
sg11
Nsba(icrowdsourcing.annotation_types.bbox.bbox
SingleBBox
p924
(dp925
g3
Nsg4
F0.6303501945525292
sg5
I1
sg6
F0.5
sg7
F9.865824782951855e-05
sg8
F0.4842196281884998
sg9
F0.5778210116731517
sg10
F0.5326415910073498
sg11
Nsba(icrowdsourcing.annotation_types.bbox.bbox
SingleBBox
p926
(dp927
g3
Nsg4
F0.939729397293973
sg5
I1
sg6
F0.5
sg7
F9.865824782951855e-05
sg8
F0.4132841328413284
sg9
F0.939729397293973
sg10
F0.4132841328413284
sg11
Nsba(icrowdsourcing.annotation_types.bbox.bbox
SingleBBox
p928
(dp929
g3
Nsg4
F0.6346863468634687
sg5
I34
sg6
F0.5
sg7
F0.0033543804262036307
sg8
F0.4132841328413284
sg9
F0.5830258302583026
sg10
F0.6800601339346727
sg11
Nsba(icrowdsourcing.annotation_types.bbox.bbox
SingleBBox
p930
(dp931
g3
Nsg4
F0.6715867158671587
sg5
I66
sg6
F0.5
sg7
F0.006511444356748224
sg8
F0.4329643296432964
sg9
F0.5768757687576875
sg10
F0.6997403307366407
sg11
Nsba(icrowdsourcing.annotation_types.bbox.bbox
SingleBBox
p932
(dp933
g3
Nsg4
F0.9707792207792206
sg5
I7
sg6
F0.5
sg7
F0.0006906077348066298
sg8
F0.4675324675324676
sg9
F0.9512987012987011
sg10
F0.6810966810966812
sg11
Nsba(icrowdsourcing.annotation_types.bbox.bbox
SingleBBox
p934
(dp935
g3
Nsg4
F0.5459092481549815
sg5
I1
sg6
F0.5
sg7
F9.865824782951855e-05
sg8
F0.7168494601612684
sg9
F0.5459092481549815
sg10
F0.7168494601612684
sg11
Nsba(icrowdsourcing.annotation_types.bbox.bbox
SingleBBox
p936
(dp937
g3
Nsg4
F0.33483114429548666
sg5
I21
sg6
F0.5
sg7
F0.0020718232044198894
sg8
F0.4270152505446624
sg9
F0.2919389874327416
sg10
F0.7712418300653594
sg11
Nsba(icrowdsourcing.annotation_types.bbox.bbox
SingleBBox
p938
(dp939
g3
Nsg4
F0.8105781057810578
sg5
I6
sg6
F0.5
sg7
F0.0005919494869771113
sg8
F0.4089107557742245
sg9
F0.7687576875768757
sg10
F0.5291786251195845
sg11
Nsba(icrowdsourcing.annotation_types.bbox.bbox
SingleBBox
p940
(dp941
g3
Nsg4
F0.24108241082410825
sg5
I70
sg6
F0.5
sg7
F0.006906077348066298
sg8
F0.45045783791171246
sg9
F0.18081180811808117
sg10
F0.6691266912669127
sg11
Nsba(icrowdsourcing.annotation_types.bbox.bbox
SingleBBox
p942
(dp943
g3
Nsg4
F0.2189421894218942
sg5
I1
sg6
F0.5
sg7
F9.865824782951855e-05
sg8
F0.46139128057947243
sg9
F0.18942189421894218
sg10
F0.5422987563208964
sg11
Nsba(icrowdsourcing.annotation_types.bbox.bbox
SingleBBox
p944
(dp945
g3
Nsg4
F0.010088272383354344
sg5
I30
sg6
F0.5
sg7
F0.0029597474348855564
sg8
F0.4771752632080181
sg9
F0.0
sg10
F0.6632478769309584
sg11
Nsba(icrowdsourcing.annotation_types.bbox.bbox
SingleBBox
p946
(dp947
g3
Nsg4
F0.7466174661746617
sg5
I77
sg6
F0.5
sg7
F0.007596685082872928
sg8
F0.43077764110974437
sg9
F0.6506765067650676
sg10
F0.6953669536695366
sg11
Nsba(icrowdsourcing.annotation_types.bbox.bbox
SingleBBox
p948
(dp949
g3
Nsg4
F0.832718327183272
sg5
I5
sg6
F0.5
sg7
F0.0004932912391475928
sg8
F0.4395243952439524
sg9
F0.789667896678967
sg10
F0.5619789531228645
sg11
Nsba(icrowdsourcing.annotation_types.bbox.bbox
SingleBBox
p950
(dp951
g3
Nsg4
F0.8548585485854858
sg5
I1
sg6
F0.5
sg7
F9.865824782951855e-05
sg8
F0.4264042640426404
sg9
F0.7626076260762609
sg10
F0.5794724613912805
sg11
Nsba(icrowdsourcing.annotation_types.bbox.bbox
SingleBBox
p952
(dp953
g3
Nsg4
F0.3714637146371464
sg5
I1
sg6
F0.5
sg7
F9.865824782951855e-05
sg8
F0.42203088697553637
sg9
F0.3628536285362854
sg10
F0.4526445264452645
sg11
Nsba(icrowdsourcing.annotation_types.bbox.bbox
SingleBBox
p954
(dp955
g3
Nsg4
F0.92619926199262
sg5
I4
sg6
F0.5
sg7
F0.0003946329913180742
sg8
F0.4438977723110564
sg9
F0.8954489544895449
sg10
F0.5488588219215526
sg11
Nsba(icrowdsourcing.annotation_types.bbox.bbox
SingleBBox
p956
(dp957
g3
Nsg4
F0.93849938499385
sg5
I2
sg6
F0.5
sg7
F0.0001973164956590371
sg8
F0.42203088697553637
sg9
F0.879458794587946
sg10
F0.5838458384583846
sg11
Nsba(icrowdsourcing.annotation_types.bbox.bbox
SingleBBox
p958
(dp959
g3
Nsg4
F0.7293972939729398
sg5
I26
sg6
F0.5
sg7
F0.002565114443567482
sg8
F0.4089107557742245
sg9
F0.6777367773677737
sg10
F0.6888068880688808
sg11
Nsba(icrowdsourcing.annotation_types.bbox.bbox
SingleBBox
p960
(dp961
g3
Nsg4
F0.9849229479890489
sg5
I2
sg6
F0.5
sg7
F0.0001973164956590371
sg8
F0.41059241059241064
sg9
F0.9566674197335207
sg10
F0.5023205023205023
sg11
Nsba(icrowdsourcing.annotation_types.bbox.bbox
SingleBBox
p962
(dp963
g3
Nsg4
F0.1894218942189422
sg5
I5
sg6
F0.5
sg7
F0.0004932912391475928
sg8
F0.45264452644526454
sg9
F0.15990159901599013
sg10
F0.5466721333880006
sg11
Nsba(icrowdsourcing.annotation_types.bbox.bbox
SingleBBox
p964
(dp965
g3
Nsg4
F0.18327183271832714
sg5
I2
sg6
F0.5
sg7
F0.0001973164956590371
sg8
F0.46795134618012846
sg9
F0.16728167281672812
sg10
F0.5357386907202405
sg11
Nsba(icrowdsourcing.annotation_types.bbox.bbox
SingleBBox
p966
(dp967
g3
Nsg4
F0.30627306273062727
sg5
I4
sg6
F0.5
sg7
F0.0003946329913180742
sg8
F0.39360393603936045
sg9
F0.27921279212792127
sg10
F0.5007516741834084
sg11
Nsba(icrowdsourcing.annotation_types.bbox.bbox
SingleBBox
p968
(dp969
g3
Nsg4
F0.32718327183271834
sg5
I13
sg6
F0.5
sg7
F0.001282557221783741
sg8
F0.39141724750580836
sg9
F0.2915129151291513
sg10
F0.5532321989886566
sg11
Nsba(icrowdsourcing.annotation_types.bbox.bbox
SingleBBox
p970
(dp971
g3
Nsg4
F0.30135301353013527
sg5
I3
sg6
F0.5
sg7
F0.00029597474348855567
sg8
F0.3979773131064644
sg9
F0.2865928659286593
sg10
F0.5226185595189284
sg11
Nsba(icrowdsourcing.annotation_types.bbox.bbox
SingleBBox
p972
(dp973
g3
Nsg4
F0.29204825511435634
sg5
I1
sg6
F0.5
sg7
F9.865824782951855e-05
sg8
F0.38656838651244285
sg9
F0.2748492379153391
sg10
F0.5066885066325629
sg11
Nsba(icrowdsourcing.annotation_types.bbox.bbox
SingleBBox
p974
(dp975
g3
Nsg4
F0.2988929889298893
sg5
I1
sg6
F0.5
sg7
F9.865824782951855e-05
sg8
F0.4023506901735684
sg9
F0.2841328413284133
sg10
F0.4438977723110564
sg11
Nsba(icrowdsourcing.annotation_types.bbox.bbox
SingleBBox
p976
(dp977
g3
Nsg4
F0.31734317343173435
sg5
I1
sg6
F0.5
sg7
F9.865824782951855e-05
sg8
F0.3892305589722565
sg9
F0.3013530135301353
sg10
F0.5510455104551045
sg11
Nsba(icrowdsourcing.annotation_types.bbox.bbox
SingleBBox
p978
(dp979
g3
Nsg4
F0.18450184501845004
sg5
I18
sg6
F0.5
sg7
F0.001775848460931334
sg8
F0.41765750990843237
sg9
F0.0
sg10
F0.7631542982096486
sg11
Nsba(icrowdsourcing.annotation_types.bbox.bbox
SingleBBox
p980
(dp981
g3
Nsg4
F0.1968019680196802
sg5
I66
sg6
F0.5
sg7
F0.006511444356748224
sg8
F0.4941916085827524
sg9
F0.11439114391143912
sg10
F0.9009156758234249
sg11
Nsba(icrowdsourcing.annotation_types.bbox.bbox
SingleBBox
p982
(dp983
g3
Nsg4
F0.06980519480519487
sg5
I144
sg6
F0.5
sg7
F0.014206787687450671
sg8
F0.4415584415584416
sg9
F0.008116883116883189
sg10
F0.8600288600288601
sg11
Nsba(icrowdsourcing.annotation_types.bbox.bbox
SingleBBox
p984
(dp985
g3
Nsg4
F0.804193889393526
sg5
I9
sg6
F0.5
sg7
F0.000887924230465667
sg8
F0.43790849673202625
sg9
F0.7723311442954867
sg10
F0.8126361655773421
sg11
Nsba(icrowdsourcing.annotation_types.bbox.bbox
SingleBBox
p986
(dp987
g3
Nsg4
F0.33333333333333337
sg5
I1
sg6
F0.5
sg7
F9.865824782951855e-05
sg8
F0.42859095257619245
sg9
F0.3234932349323493
sg10
F0.47232472324723257
sg11
Nsba(icrowdsourcing.annotation_types.bbox.bbox
SingleBBox
p988
(dp989
g3
Nsg4
F0.3444034440344403
sg5
I1
sg6
F0.5
sg7
F9.865824782951855e-05
sg8
F0.4110974443077764
sg9
F0.31857318573185733
sg10
F0.4854448544485445
sg11
Nsba(icrowdsourcing.annotation_types.bbox.bbox
SingleBBox
p990
(dp991
g3
Nsg4
F0.16974169741697417
sg5
I7
sg6
F0.5
sg7
F0.0006906077348066298
sg8
F0.4089107557742244
sg9
F0.1402214022140221
sg10
F0.5576055760557606
sg11
Nsba(icrowdsourcing.annotation_types.bbox.bbox
SingleBBox
p992
(dp993
g3
Nsg4
F0.18573185731857317
sg5
I4
sg6
F0.5
sg7
F0.0003946329913180742
sg8
F0.41765750990843253
sg9
F0.15129151291512916
sg10
F0.5379253792537925
sg11
Nsba(icrowdsourcing.annotation_types.bbox.bbox
SingleBBox
p994
(dp995
g3
Nsg4
F0.17343173431734318
sg5
I3
sg6
F0.5
sg7
F0.00029597474348855567
sg8
F0.4198441984419844
sg9
F0.16113161131611314
sg10
F0.5269919365860324
sg11
Nsba(icrowdsourcing.annotation_types.bbox.bbox
SingleBBox
p996
(dp997
g3
Nsg4
F0.1131611316113161
sg5
I1
sg6
F0.5
sg7
F9.865824782951855e-05
sg8
F0.4460844608446084
sg9
F0.09471094710947109
sg10
F0.47888478884788854
sg11
Nsba(icrowdsourcing.annotation_types.bbox.bbox
SingleBBox
p998
(dp999
g3
Nsg4
F0.16113161131611314
sg5
I2
sg6
F0.5
sg7
F0.0001973164956590371
sg8
F0.4198441984419844
sg9
F0.13530135301353008
sg10
F0.5357386907202406
sg11
Nsba(icrowdsourcing.annotation_types.bbox.bbox
SingleBBox
p1000
(dp1001
g3
Nsg4
F0.1193111931119311
sg5
I1
sg6
F0.5
sg7
F9.865824782951855e-05
sg8
F0.4460844608446084
sg9
F0.09348093480934808
sg10
F0.5007516741834084
sg11
Nsba(icrowdsourcing.annotation_types.bbox.bbox
SingleBBox
p1002
(dp1003
g3
Nsg4
F0.045119508185609225
sg5
I28
sg6
F0.5
sg7
F0.0027624309392265192
sg8
F0.4542724542724542
sg9
F0.021777984844085885
sg10
F0.607152607152607
sg11
Nsba(icrowdsourcing.annotation_types.bbox.bbox
SingleBBox
p1004
(dp1005
g3
Nsg4
F0.009840098400983993
sg5
I2
sg6
F0.5
sg7
F0.0001973164956590371
sg8
F0.4963782971163045
sg9
F0.0036900369003689875
sg10
F0.6319529861965287
sg11
Nsba(icrowdsourcing.annotation_types.bbox.bbox
SingleBBox
p1006
(dp1007
g3
Nsg4
F0.7906816958794588
sg5
I1
sg6
F0.5
sg7
F9.865824782951855e-05
sg8
F0.8786644116441163
sg9
F0.7906816958794588
sg10
F0.8786644116441163
sg11
Nsba(icrowdsourcing.annotation_types.bbox.bbox
SingleBBox
p1008
(dp1009
g3
Nsg4
F0.1242312423124231
sg5
I7
sg6
F0.5
sg7
F0.0006906077348066298
sg8
F0.46795134618012846
sg9
F0.09840098400984007
sg10
F0.5969659696596965
sg11
Nsba(icrowdsourcing.annotation_types.bbox.bbox
SingleBBox
p1010
(dp1011
g3
Nsg4
F0.018092481158582197
sg5
I21
sg6
F0.5
sg7
F0.0020718232044198894
sg8
F0.43243243243243246
sg9
F0.003350466416567455
sg10
F0.6399126399126399
sg11
Nsba(icrowdsourcing.annotation_types.bbox.bbox
SingleBBox
p1012
(dp1013
g3
Nsg4
F0.40467404674046736
sg5
I1
sg6
F0.5
sg7
F9.865824782951855e-05
sg8
F0.45264452644526443
sg9
F0.37638376383763844
sg10
F0.4963782971163045
sg11
Nsba(icrowdsourcing.annotation_types.bbox.bbox
SingleBBox
p1014
(dp1015
g3
Nsg4
F0.4587945879458794
sg5
I1
sg6
F0.5
sg7
F9.865824782951855e-05
sg8
F0.4788847888478884
sg9
F0.45264452644526443
sg10
F0.5094984283176165
sg11
Nsba(icrowdsourcing.annotation_types.bbox.bbox
SingleBBox
p1016
(dp1017
g3
Nsg4
F0.9569495694956949
sg5
I2
sg6
F0.5
sg7
F0.0001973164956590371
sg8
F0.4504578379117125
sg9
F0.93849938499385
sg10
F0.5466721333880006
sg11
Nsba(icrowdsourcing.annotation_types.bbox.bbox
SingleBBox
p1018
(dp1019
g3
Nsg4
F0.16605166051660514
sg5
I5
sg6
F0.5
sg7
F0.0004932912391475928
sg8
F0.45920459204592046
sg9
F0.1476014760147601
sg10
F0.5138718053847205
sg11
Nsba(icrowdsourcing.annotation_types.bbox.bbox
SingleBBox
p1020
(dp1021
g3
Nsg4
F0.35424354243542433
sg5
I12
sg6
F0.5
sg7
F0.0011838989739542227
sg8
F0.49200492004920054
sg9
F0.1279212792127921
sg10
F0.8221948886155528
sg11
Nsba(icrowdsourcing.annotation_types.bbox.bbox
SingleBBox
p1022
(dp1023
g3
Nsg4
F0.17589175891758915
sg5
I3
sg6
F0.5
sg7
F0.00029597474348855567
sg8
F0.45045783791171234
sg9
F0.15006150061500617
sg10
F0.5116851168511686
sg11
Nsba(icrowdsourcing.annotation_types.bbox.bbox
SingleBBox
p1024
(dp1025
g3
Nsg4
F0.3788437884378844
sg5
I1
sg6
F0.5
sg7
F9.865824782951855e-05
sg8
F0.4351510181768485
sg9
F0.3677736777367773
sg10
F0.4854448544485444
sg11
Nsba(icrowdsourcing.annotation_types.bbox.bbox
SingleBBox
p1026
(dp1027
g3
Nsg4
F0.39237392373923735
sg5
I1
sg6
F0.5
sg7
F9.865824782951855e-05
sg8
F0.43077764110974454
sg9
F0.3603936039360393
sg10
F0.4832581659149925
sg11
Nsba(icrowdsourcing.annotation_types.bbox.bbox
SingleBBox
p1028
(dp1029
g3
Nsg4
F0.02214022140221401
sg5
I2
sg6
F0.5
sg7
F0.0001973164956590371
sg8
F0.6100861008610087
sg9
F0.0
sg10
F0.7150471504715047
sg11
Nsba(icrowdsourcing.annotation_types.bbox.bbox
SingleBBox
p1030
(dp1031
g3
Nsg4
F0.7121771217712177
sg5
I28
sg6
F0.5
sg7
F0.0027624309392265192
sg8
F0.44389777231105637
sg9
F0.6432964329643297
sg10
F0.6560065600656007
sg11
Nsba(icrowdsourcing.annotation_types.bbox.bbox
SingleBBox
p1032
(dp1033
g3
Nsg4
F0.44635075213862396
sg5
I9
sg6
F0.5
sg7
F0.000887924230465667
sg8
F0.24183006535947713
sg9
F0.2551742815503887
sg10
F0.8213507625272332
sg11
Nsba(icrowdsourcing.annotation_types.bbox.bbox
SingleBBox
p1034
(dp1035
g3
Nsg4
F0.1254612546125461
sg5
I4
sg6
F0.5
sg7
F0.0003946329913180742
sg8
F0.4657646576465764
sg9
F0.10209102091020908
sg10
F0.5116851168511686
sg11
Nsba(icrowdsourcing.annotation_types.bbox.bbox
SingleBBox
p1036
(dp1037
g3
Nsg4
F0.1193111931119311
sg5
I2
sg6
F0.5
sg7
F0.0001973164956590371
sg8
F0.47232472324723246
sg9
F0.11070110701107008
sg10
F0.5138718053847205
sg11
Nsba(icrowdsourcing.annotation_types.bbox.bbox
SingleBBox
p1038
(dp1039
g3
Nsg4
F0.1266912669126691
sg5
I3
sg6
F0.5
sg7
F0.00029597474348855567
sg8
F0.4635779691130245
sg9
F0.11070110701107008
sg10
F0.5226185595189287
sg11
Nsba(icrowdsourcing.annotation_types.bbox.bbox
SingleBBox
p1040
(dp1041
g3
Nsg4
F0.02214022140221401
sg5
I2
sg6
F0.5
sg7
F0.0001973164956590371
sg8
F0.47232472324723246
sg9
F0.011070110701106995
sg10
F0.5138718053847205
sg11
Nsba(icrowdsourcing.annotation_types.bbox.bbox
SingleBBox
p1042
(dp1043
g3
Nsg4
F0.062318525384626434
sg5
I2
sg6
F0.5
sg7
F0.0001973164956590371
sg8
F0.46956046956046954
sg9
F0.041434004500105544
sg10
F0.5154245154245154
sg11
Nsba(icrowdsourcing.annotation_types.bbox.bbox
SingleBBox
p1044
(dp1045
g3
Nsg4
F0.15006150061500614
sg5
I16
sg6
F0.5
sg7
F0.0015785319652722968
sg8
F0.4329643296432964
sg9
F0.11562115621156208
sg10
F0.6385130517971846
sg11
Nsba(icrowdsourcing.annotation_types.bbox.bbox
SingleBBox
p1046
(dp1047
g3
Nsg4
F0.18696186961869615
sg5
I4
sg6
F0.5
sg7
F0.0003946329913180742
sg8
F0.4438977723110564
sg9
F0.1512915129151291
sg10
F0.6057127237939046
sg11
Nsba(icrowdsourcing.annotation_types.bbox.bbox
SingleBBox
p1048
(dp1049
g3
Nsg4
F0.7650676506765068
sg5
I6
sg6
F0.5
sg7
F0.0005919494869771113
sg8
F0.3870438704387044
sg9
F0.7183271832718328
sg10
F0.5685390187235206
sg11
Nsba(icrowdsourcing.annotation_types.bbox.bbox
SingleBBox
p1050
(dp1051
g3
Nsg4
F0.027060270602706014
sg5
I41
sg6
F0.5
sg7
F0.00404498816101026
sg8
F0.4460844608446084
sg9
F0.00615006150061499
sg10
F0.6122727893945605
sg11
Nsba(icrowdsourcing.annotation_types.bbox.bbox
SingleBBox
p1052
(dp1053
g3
Nsg4
F0.05658056580565805
sg5
I5
sg6
F0.5
sg7
F0.0004932912391475928
sg8
F0.4438977723110564
sg9
F0.04305043050430503
sg10
F0.5269919365860325
sg11
Nsba(icrowdsourcing.annotation_types.bbox.bbox
SingleBBox
p1054
(dp1055
g3
Nsg4
F0.1463714637146371
sg5
I5
sg6
F0.5
sg7
F0.0004932912391475928
sg8
F0.43077764110974437
sg9
F0.11193111931119311
sg10
F0.5313653136531366
sg11
Nsba(icrowdsourcing.annotation_types.bbox.bbox
SingleBBox
p1056
(dp1057
g3
Nsg4
F0.6740467404674046
sg5
I5
sg6
F0.5
sg7
F0.0004932912391475928
sg8
F0.4023506901735685
sg9
F0.6482164821648216
sg10
F0.5401120677873446
sg11
Nsba(icrowdsourcing.annotation_types.bbox.bbox
SingleBBox
p1058
(dp1059
g3
Nsg4
F0.7539975399753998
sg5
I5
sg6
F0.5
sg7
F0.0004932912391475928
sg8
F0.4089107557742245
sg9
F0.7281672816728166
sg10
F0.5597922645893125
sg11
Nsba(icrowdsourcing.annotation_types.bbox.bbox
SingleBBox
p1060
(dp1061
g3
Nsg4
F0.1424968474148802
sg5
I4
sg6
F0.5
sg7
F0.0003946329913180742
sg8
F0.418887467215304
sg9
F0.1034047919293821
sg10
F0.6004764043234202
sg11
Nsba(icrowdsourcing.annotation_types.bbox.bbox
SingleBBox
p1062
(dp1063
g3
Nsg4
F0.18158890290037827
sg5
I4
sg6
F0.5
sg7
F0.0003946329913180742
sg8
F0.43233849705977656
sg9
F0.13745271122320304
sg10
F0.5847835361715356
sg11
Nsba(icrowdsourcing.annotation_types.bbox.bbox
SingleBBox
p1064
(dp1065
g3
Nsg4
F0.059861522927624186
sg5
I5
sg6
F0.5
sg7
F0.0004932912391475928
sg8
F0.43461643456049087
sg9
F0.035291498357599635
sg10
F0.5219765219205782
sg11
Nsba(icrowdsourcing.annotation_types.bbox.bbox
SingleBBox
p1066
(dp1067
g3
Nsg4
F0.17835178351783515
sg5
I1
sg6
F0.5
sg7
F9.865824782951855e-05
sg8
F0.43733770671040045
sg9
F0.15621156211562112
sg10
F0.5554188875222086
sg11
Nsba(icrowdsourcing.annotation_types.bbox.bbox
SingleBBox
p1068
(dp1069
g3
Nsg4
F0.7279510685731857
sg5
I1
sg6
F0.5
sg7
F9.865824782951855e-05
sg8
F0.428206573732404
sg9
F0.7279510685731857
sg10
F0.428206573732404
sg11
Nsba(icrowdsourcing.annotation_types.bbox.bbox
SingleBBox
p1070
(dp1071
g3
Nsg4
F0.7254910439729396
sg5
I1
sg6
F0.5
sg7
F9.865824782951855e-05
sg8
F0.443513393467268
sg9
F0.7254910439729396
sg10
F0.443513393467268
sg11
Nsba(icrowdsourcing.annotation_types.bbox.bbox
SingleBBox
p1072
(dp1073
g3
Nsg4
F0.998769987699877
sg5
I1
sg6
F0.5
sg7
F9.865824782951855e-05
sg8
F0.6691266912669126
sg9
F0.9950799507995081
sg10
F0.6953669536695366
sg11
Nsba(icrowdsourcing.annotation_types.bbox.bbox
SingleBBox
p1074
(dp1075
g3
Nsg4
F0.17276166456494324
sg5
I1
sg6
F0.5
sg7
F9.865824782951855e-05
sg8
F0.36663022174276655
sg9
F0.17189154799318254
sg10
F0.36663022174276655
sg11
Nsba(icrowdsourcing.annotation_types.bbox.bbox
SingleBBox
p1076
(dp1077
g3
Nsg4
F0.1662450648496611
sg5
I1
sg6
F0.5
sg7
F9.865824782951855e-05
sg8
F0.7013643277331162
sg9
F0.1662450648496611
sg10
F0.7013643277331162
sg11
Nsba(icrowdsourcing.annotation_types.bbox.bbox
SingleBBox
p1078
(dp1079
g3
Nsg4
F0.3505535055350554
sg5
I8
sg6
F0.5
sg7
F0.0007892659826361484
sg8
F0.4154708213748804
sg9
F0.32103321033210336
sg10
F0.5554188875222086
sg11
Nsba(icrowdsourcing.annotation_types.bbox.bbox
SingleBBox
p1080
(dp1081
g3
Nsg4
F0.3665436654366544
sg5
I4
sg6
F0.5
sg7
F0.0003946329913180742
sg8
F0.43733770671040045
sg9
F0.3198031980319803
sg10
F0.5772857728577285
sg11
Nsba(icrowdsourcing.annotation_types.bbox.bbox
SingleBBox
p1082
(dp1083
g3
Nsg4
F0.9606396063960639
sg5
I1
sg6
F0.5
sg7
F9.865824782951855e-05
sg8
F0.45264452644526454
sg9
F0.9348093480934809
sg10
F0.5182451824518245
sg11
Nsba(icrowdsourcing.annotation_types.bbox.bbox
SingleBBox
p1084
(dp1085
g3
Nsg4
F0.8782287822878228
sg5
I1
sg6
F0.5
sg7
F9.865824782951855e-05
sg8
F0.4701380347136805
sg9
F0.8610086100861007
sg10
F0.5116851168511686
sg11
Nsba(icrowdsourcing.annotation_types.bbox.bbox
SingleBBox
p1086
(dp1087
g3
Nsg4
F0.1131611316113161
sg5
I1
sg6
F0.5
sg7
F9.865824782951855e-05
sg8
F0.46795134618012846
sg9
F0.09717097170971707
sg10
F0.5138718053847205
sg11
Nsba(icrowdsourcing.annotation_types.bbox.bbox
SingleBBox
p1088
(dp1089
g3
Nsg4
F0.39975399753997537
sg5
I1
sg6
F0.5
sg7
F9.865824782951855e-05
sg8
F0.46795134618012846
sg9
F0.3788437884378844
sg10
F0.5182451824518245
sg11
Nsba(icrowdsourcing.annotation_types.bbox.bbox
SingleBBox
p1090
(dp1091
g3
Nsg4
F0.1245136186770428
sg5
I1
sg6
F0.5
sg7
F9.865824782951855e-05
sg8
F0.46346735840899267
sg9
F0.08949416342412454
sg10
F0.5015131863380891
sg11
Nsba(icrowdsourcing.annotation_types.bbox.bbox
SingleBBox
p1092
(dp1093
g3
Nsg4
F0.43385214007782097
sg5
I1
sg6
F0.5
sg7
F9.865824782951855e-05
sg8
F0.46346735840899256
sg9
F0.3618677042801557
sg10
F0.5326415910073498
sg11
Nsba(icrowdsourcing.annotation_types.bbox.bbox
SingleBBox
p1094
(dp1095
g3
Nsg4
F0.897908979089791
sg5
I1
sg6
F0.5
sg7
F9.865824782951855e-05
sg8
F0.45483121497881646
sg9
F0.890528905289053
sg10
F0.48981823151564846
sg11
Nsba(icrowdsourcing.annotation_types.bbox.bbox
SingleBBox
p1096
(dp1097
g3
Nsg4
F0.6949569495694956
sg5
I1
sg6
F0.5
sg7
F9.865824782951855e-05
sg8
F0.45701790351236843
sg9
F0.6851168511685117
sg10
F0.48544485444854446
sg11
Nsba(icrowdsourcing.annotation_types.bbox.bbox
SingleBBox
p1098
(dp1099
g3
Nsg4
F0.6592865928659286
sg5
I1
sg6
F0.5
sg7
F9.865824782951855e-05
sg8
F0.44171108377750445
sg9
F0.6568265682656825
sg10
F0.4788847888478884
sg11
Nsba(icrowdsourcing.annotation_types.bbox.bbox
SingleBBox
p1100
(dp1101
g3
Nsg4
F0.7146371463714637
sg5
I6
sg6
F0.5
sg7
F0.0005919494869771113
sg8
F0.42859095257619245
sg9
F0.6838868388683886
sg10
F0.5576055760557607
sg11
Nsba(icrowdsourcing.annotation_types.bbox.bbox
SingleBBox
p1102
(dp1103
g3
Nsg4
F0.13530135301353008
sg5
I1
sg6
F0.5
sg7
F9.865824782951855e-05
sg8
F0.47451141178078443
sg9
F0.1230012300123001
sg10
F0.5357386907202406
sg11
Nsba(icrowdsourcing.annotation_types.bbox.bbox
SingleBBox
p1104
(dp1105
g3
Nsg4
F0.4698646986469865
sg5
I1
sg6
F0.5
sg7
F9.865824782951855e-05
sg8
F0.46795134618012846
sg9
F0.45387453874538747
sg10
F0.5094984283176165
sg11
Nsba(icrowdsourcing.annotation_types.bbox.bbox
SingleBBox
p1106
(dp1107
g3
Nsg4
F0.8400984009840098
sg5
I1
sg6
F0.5
sg7
F9.865824782951855e-05
sg8
F0.4657646576465765
sg9
F0.824108241082411
sg10
F0.5138718053847205
sg11
Nsba(icrowdsourcing.annotation_types.bbox.bbox
SingleBBox
p1108
(dp1109
g3
Nsg4
F0.48054474708171196
sg5
I1
sg6
F0.5
sg7
F9.865824782951855e-05
sg8
F0.4600086467790748
sg9
F0.4416342412451362
sg10
F0.5118893212278426
sg11
Nsba(icrowdsourcing.annotation_types.bbox.bbox
SingleBBox
p1110
(dp1111
g3
Nsg4
F0.33948339483394835
sg5
I11
sg6
F0.5
sg7
F0.001085240726124704
sg8
F0.4132841328413284
sg9
F0.30012300123001234
sg10
F0.5422987563208966
sg11
Nsba(icrowdsourcing.annotation_types.bbox.bbox
SingleBBox
p1112
(dp1113
g3
Nsg4
F0.33728212468764357
sg5
I2
sg6
F0.5
sg7
F0.0001973164956590371
sg8
F0.3986928104575164
sg9
F0.26742918351117295
sg10
F0.5446623093681917
sg11
Nsba(icrowdsourcing.annotation_types.bbox.bbox
SingleBBox
p1114
(dp1115
g3
Nsg4
F0.32841328413284127
sg5
I2
sg6
F0.5
sg7
F0.0001973164956590371
sg8
F0.4198441984419844
sg9
F0.3075030750307503
sg10
F0.5335520021866885
sg11
Nsba(icrowdsourcing.annotation_types.bbox.bbox
SingleBBox
p1116
(dp1117
g3
Nsg4
F0.3517835178351783
sg5
I10
sg6
F0.5
sg7
F0.0009865824782951855
sg8
F0.3957906245729125
sg9
F0.2915129151291513
sg10
F0.5882192155254886
sg11
Nsba(icrowdsourcing.annotation_types.bbox.bbox
SingleBBox
p1118
(dp1119
g3
Nsg4
F0.5731857318573186
sg5
I3
sg6
F0.5
sg7
F0.00029597474348855567
sg8
F0.45264452644526454
sg9
F0.5584255842558425
sg10
F0.5466721333880006
sg11
Nsba(icrowdsourcing.annotation_types.bbox.bbox
SingleBBox
p1120
(dp1121
g3
Nsg4
F0.38007380073800745
sg5
I1
sg6
F0.5
sg7
F9.865824782951855e-05
sg8
F0.4766981003143365
sg9
F0.3677736777367773
sg10
F0.5051250512505125
sg11
Nsba(icrowdsourcing.annotation_types.bbox.bbox
SingleBBox
p1122
(dp1123
g3
Nsg4
F0.5473554735547356
sg5
I1
sg6
F0.5
sg7
F9.865824782951855e-05
sg8
F0.4220308869755363
sg9
F0.4993849938499385
sg10
F0.48107147738144046
sg11
Nsba(icrowdsourcing.annotation_types.bbox.bbox
SingleBBox
p1124
(dp1125
g3
Nsg4
F0.5338253382533825
sg5
I1
sg6
F0.5
sg7
F9.865824782951855e-05
sg8
F0.4154708213748804
sg9
F0.5092250922509226
sg10
F0.47232472324723246
sg11
Nsba(icrowdsourcing.annotation_types.bbox.bbox
SingleBBox
p1126
(dp1127
g3
Nsg4
F0.8831488314883149
sg5
I1
sg6
F0.5
sg7
F9.865824782951855e-05
sg8
F0.47232472324723246
sg9
F0.8733087330873307
sg10
F0.5226185595189285
sg11
Nsba(icrowdsourcing.annotation_types.bbox.bbox
SingleBBox
p1128
(dp1129
g3
Nsg4
F0.1094710947109471
sg5
I2
sg6
F0.5
sg7
F0.0001973164956590371
sg8
F0.46139128057947243
sg9
F0.08610086100861007
sg10
F0.5816591499248326
sg11
Nsba(icrowdsourcing.annotation_types.bbox.bbox
SingleBBox
p1130
(dp1131
g3
Nsg4
F0.7035670356703567
sg5
I1
sg6
F0.5
sg7
F9.865824782951855e-05
sg8
F0.4766981003143365
sg9
F0.6838868388683886
sg10
F0.5313653136531366
sg11
Nsba(icrowdsourcing.annotation_types.bbox.bbox
SingleBBox
p1132
(dp1133
g3
Nsg4
F0.9311193111931118
sg5
I3
sg6
F0.5
sg7
F0.00029597474348855567
sg8
F0.44389777231105637
sg9
F0.915129151291513
sg10
F0.5313653136531366
sg11
Nsba(icrowdsourcing.annotation_types.bbox.bbox
SingleBBox
p1134
(dp1135
g3
Nsg4
F0.931119311193112
sg5
I1
sg6
F0.5
sg7
F9.865824782951855e-05
sg8
F0.4635779691130245
sg9
F0.922509225092251
sg10
F0.5116851168511686
sg11
Nsba(icrowdsourcing.annotation_types.bbox.bbox
SingleBBox
p1136
(dp1137
g3
Nsg4
F0.16113161131611314
sg5
I7
sg6
F0.5
sg7
F0.0006906077348066298
sg8
F0.43077764110974437
sg9
F0.11685116851168509
sg10
F0.5750990843241766
sg11
Nsba(icrowdsourcing.annotation_types.bbox.bbox
SingleBBox
p1138
(dp1139
g3
Nsg4
F0.35301353013530135
sg5
I1
sg6
F0.5
sg7
F9.865824782951855e-05
sg8
F0.46139128057947243
sg9
F0.3444034440344403
sg10
F0.5248052480524805
sg11
Nsba(icrowdsourcing.annotation_types.bbox.bbox
SingleBBox
p1140
(dp1141
g3
Nsg4
F0.7970479704797049
sg5
I3
sg6
F0.5
sg7
F0.00029597474348855567
sg8
F0.4460844608446084
sg9
F0.7650676506765068
sg10
F0.5160584939182725
sg11
Nsba(icrowdsourcing.annotation_types.bbox.bbox
SingleBBox
p1142
(dp1143
g3
Nsg4
F0.7859778597785978
sg5
I1
sg6
F0.5
sg7
F9.865824782951855e-05
sg8
F0.46139128057947243
sg9
F0.7749077490774907
sg10
F0.5182451824518245
sg11
Nsba(icrowdsourcing.annotation_types.bbox.bbox
SingleBBox
p1144
(dp1145
g3
Nsg4
F0.21437578814627994
sg5
I1
sg6
F0.5
sg7
F9.865824782951855e-05
sg8
F0.6049600809382443
sg9
F0.15258511979823455
sg10
F0.7327448644607328
sg11
Nsba(icrowdsourcing.annotation_types.bbox.bbox
SingleBBox
p1146
(dp1147
g3
Nsg4
F0.46863468634686345
sg5
I2
sg6
F0.5
sg7
F0.0001973164956590371
sg8
F0.44171108377750445
sg9
F0.45264452644526443
sg10
F0.5422987563208966
sg11
Nsba(icrowdsourcing.annotation_types.bbox.bbox
SingleBBox
p1148
(dp1149
g3
Nsg4
F0.4760147601476016
sg5
I1
sg6
F0.5
sg7
F9.865824782951855e-05
sg8
F0.4460844608446084
sg9
F0.45633456334563344
sg10
F0.5248052480524805
sg11
Nsba(icrowdsourcing.annotation_types.bbox.bbox
SingleBBox
p1150
(dp1151
g3
Nsg4
F0.2736207366868377
sg5
I4
sg6
F0.5
sg7
F0.0003946329913180742
sg8
F0.45864045864045866
sg9
F0.22570918877528978
sg10
F0.5503685503685503
sg11
Nsba(icrowdsourcing.annotation_types.bbox.bbox
SingleBBox
p1152
(dp1153
g3
Nsg4
F0.9815498154981549
sg5
I49
sg6
F0.5
sg7
F0.004834254143646409
sg8
F0.5138718053847204
sg9
F0.9077490774907749
sg10
F0.7128604619379527
sg11
Nsba(icrowdsourcing.annotation_types.bbox.bbox
SingleBBox
p1154
(dp1155
g3
Nsg4
F0.03458604625627103
sg5
I3
sg6
F0.5
sg7
F0.00029597474348855567
sg8
F0.43137254901960786
sg9
F0.01620369331509456
sg10
F0.6710239651416122
sg11
Nsba(icrowdsourcing.annotation_types.bbox.bbox
SingleBBox
p1156
(dp1157
g3
Nsg4
F0.3253467843631778
sg5
I1
sg6
F0.5
sg7
F9.865824782951855e-05
sg8
F0.5959927277085961
sg9
F0.27742749054224464
sg10
F0.6856662600050792
sg11
Nsba(icrowdsourcing.annotation_types.bbox.bbox
SingleBBox
p1158
(dp1159
g3
Nsg4
F0.4391143911439114
sg5
I1
sg6
F0.5
sg7
F9.865824782951855e-05
sg8
F0.4198441984419844
sg9
F0.4083640836408364
sg10
F0.48107147738144046
sg11
Nsba(icrowdsourcing.annotation_types.bbox.bbox
SingleBBox
p1160
(dp1161
g3
Nsg4
F0.2619926199261993
sg5
I2
sg6
F0.5
sg7
F0.0001973164956590371
sg8
F0.6057127237939047
sg9
F0.17220172201722017
sg10
F0.7391007243405767
sg11
Nsba(icrowdsourcing.annotation_types.bbox.bbox
SingleBBox
p1162
(dp1163
g3
Nsg4
F0.906519065190652
sg5
I11
sg6
F0.5
sg7
F0.001085240726124704
sg8
F0.4089107557742243
sg9
F0.8548585485854858
sg10
F0.6210195435287685
sg11
Nsba(icrowdsourcing.annotation_types.bbox.bbox
SingleBBox
p1164
(dp1165
g3
Nsg4
F0.020693996002460004
sg5
I1
sg6
F0.5
sg7
F9.865824782951855e-05
sg8
F0.9683186415197486
sg9
F0.020693996002460004
sg10
F0.9683186415197486
sg11
Nsba(icrowdsourcing.annotation_types.bbox.bbox
SingleBBox
p1166
(dp1167
g3
Nsg4
F0.9409594095940956
sg5
I14
sg6
F0.5
sg7
F0.0013812154696132596
sg8
F0.4570179035123684
sg9
F0.9003690036900369
sg10
F0.5969659696596965
sg11
Nsba(icrowdsourcing.annotation_types.bbox.bbox
SingleBBox
p1168
(dp1169
g3
Nsg4
F0.5768757687576874
sg5
I4
sg6
F0.5
sg7
F0.0003946329913180742
sg8
F0.4985649856498565
sg9
F0.5350553505535055
sg10
F0.7675276752767527
sg11
Nsba(icrowdsourcing.annotation_types.bbox.bbox
SingleBBox
p1170
(dp1171
g3
Nsg4
F0.6260762607626077
sg5
I61
sg6
F0.5
sg7
F0.0060181531176006315
sg8
F0.5007516741834086
sg9
F0.5338253382533825
sg10
F0.7609676096760967
sg11
Nsba(icrowdsourcing.annotation_types.bbox.bbox
SingleBBox
p1172
(dp1173
g3
Nsg4
F0.5141451414514144
sg5
I1
sg6
F0.5
sg7
F9.865824782951855e-05
sg8
F0.4351510181768485
sg9
F0.4772447724477245
sg10
F0.5357386907202406
sg11
Nsba(icrowdsourcing.annotation_types.bbox.bbox
SingleBBox
p1174
(dp1175
g3
Nsg4
F0.5030750307503075
sg5
I1
sg6
F0.5
sg7
F9.865824782951855e-05
sg8
F0.45483121497881646
sg9
F0.4883148831488315
sg10
F0.5182451824518245
sg11
Nsba(icrowdsourcing.annotation_types.bbox.bbox
SingleBBox
p1176
(dp1177
g3
Nsg4
F0.10578105781057807
sg5
I10
sg6
F0.5
sg7
F0.0009865824782951855
sg8
F0.4198441984419844
sg9
F0.06642066420664205
sg10
F0.5269919365860324
sg11
Nsba(icrowdsourcing.annotation_types.bbox.bbox
SingleBBox
p1178
(dp1179
g3
Nsg4
F0.14242918351117298
sg5
I10
sg6
F0.5
sg7
F0.0009865824782951855
sg8
F0.3943355119825709
sg9
F0.06399781096215337
sg10
F0.6318082788671026
sg11
Nsba(icrowdsourcing.annotation_types.bbox.bbox
SingleBBox
p1180
(dp1181
g3
Nsg4
F0.011070110701106993
sg5
I1
sg6
F0.5
sg7
F9.865824782951855e-05
sg8
F0.5094984283176165
sg9
F0.0012300123001229846
sg10
F0.5576055760557607
sg11
Nsba(icrowdsourcing.annotation_types.bbox.bbox
SingleBBox
p1182
(dp1183
g3
Nsg4
F0.4797047970479705
sg5
I3
sg6
F0.5
sg7
F0.00029597474348855567
sg8
F0.4460844608446084
sg9
F0.4661746617466175
sg10
F0.5269919365860324
sg11
Nsba(icrowdsourcing.annotation_types.bbox.bbox
SingleBBox
p1184
(dp1185
g3
Nsg4
F0.06519065190651904
sg5
I1
sg6
F0.5
sg7
F9.865824782951855e-05
sg8
F0.47232472324723246
sg9
F0.05289052890528902
sg10
F0.5073117397840645
sg11
Nsba(icrowdsourcing.annotation_types.bbox.bbox
SingleBBox
p1186
(dp1187
g3
Nsg4
F0.06273062730627303
sg5
I2
sg6
F0.5
sg7
F0.0001973164956590371
sg8
F0.45920459204592046
sg9
F0.04920049200492003
sg10
F0.5226185595189285
sg11
Nsba(icrowdsourcing.annotation_types.bbox.bbox
SingleBBox
p1188
(dp1189
g3
Nsg4
F0.9419254049915059
sg5
I2
sg6
F0.5
sg7
F0.0001973164956590371
sg8
F0.44335244335244334
sg9
F0.9210408841069851
sg10
F0.5416325416325416
sg11
Nsba(icrowdsourcing.annotation_types.bbox.bbox
SingleBBox
p1190
(dp1191
g3
Nsg4
F0.8265682656826566
sg5
I1
sg6
F0.5
sg7
F9.865824782951855e-05
sg8
F0.4635779691130245
sg9
F0.8191881918819188
sg10
F0.5182451824518245
sg11
Nsba(icrowdsourcing.annotation_types.bbox.bbox
SingleBBox
p1192
(dp1193
g3
Nsg4
F0.7440100882723832
sg5
I2
sg6
F0.5
sg7
F0.0001973164956590371
sg8
F0.4750455236575242
sg9
F0.7112232030264817
sg10
F0.7664845036210942
sg11
Nsba(icrowdsourcing.annotation_types.bbox.bbox
SingleBBox
p1194
(dp1195
g3
Nsg4
F0.7724477244772447
sg5
I1
sg6
F0.5
sg7
F9.865824782951855e-05
sg8
F0.4635779691130245
sg9
F0.7601476014760149
sg10
F0.48763154298209643
sg11
Nsba(icrowdsourcing.annotation_types.bbox.bbox
SingleBBox
p1196
(dp1197
g3
Nsg4
F0.7097170971709718
sg5
I1
sg6
F0.5
sg7
F9.865824782951855e-05
sg8
F0.46139128057947243
sg9
F0.6998769987699877
sg10
F0.4963782971163045
sg11
Nsba(icrowdsourcing.annotation_types.bbox.bbox
SingleBBox
p1198
(dp1199
g3
Nsg4
F0.95079950799508
sg5
I1
sg6
F0.5
sg7
F9.865824782951855e-05
sg8
F0.4657646576465765
sg9
F0.932349323493235
sg10
F0.5138718053847205
sg11
Nsba(icrowdsourcing.annotation_types.bbox.bbox
SingleBBox
p1200
(dp1201
g3
Nsg4
F0.9146776316499826
sg5
I1
sg6
F0.5
sg7
F9.865824782951855e-05
sg8
F0.7159602784602784
sg9
F0.9146776316499826
sg10
F0.7159602784602784
sg11
Nsba(icrowdsourcing.annotation_types.bbox.bbox
SingleBBox
p1202
(dp1203
g3
Nsg4
F0.4883148831488315
sg5
I3
sg6
F0.5
sg7
F0.00029597474348855567
sg8
F0.4089107557742243
sg9
F0.4587945879458795
sg10
F0.4832581659149925
sg11
Nsba(icrowdsourcing.annotation_types.bbox.bbox
SingleBBox
p1204
(dp1205
g3
Nsg4
F0.15958604625627099
sg5
I1
sg6
F0.5
sg7
F9.865824782951855e-05
sg8
F0.5708061002178652
sg9
F0.10566447762882003
sg10
F0.7973856209150327
sg11
Nsba(icrowdsourcing.annotation_types.bbox.bbox
SingleBBox
p1206
(dp1207
g3
Nsg4
F0.37638376383763833
sg5
I6
sg6
F0.5
sg7
F0.0005919494869771113
sg8
F0.45920459204592046
sg9
F0.35793357933579334
sg10
F0.5357386907202405
sg11
Nsba(icrowdsourcing.annotation_types.bbox.bbox
SingleBBox
p1208
(dp1209
g3
Nsg4
F0.6961869618696187
sg5
I1
sg6
F0.5
sg7
F9.865824782951855e-05
sg8
F0.4482711493781605
sg9
F0.6814268142681427
sg10
F0.5182451824518245
sg11
Nsba(icrowdsourcing.annotation_types.bbox.bbox
SingleBBox
p1210
(dp1211
g3
Nsg4
F0.6913111543772553
sg5
I1
sg6
F0.5
sg7
F9.865824782951855e-05
sg8
F0.44335244329649964
sg9
F0.6741121371782383
sg10
F0.5176085175525739
sg11
Nsba(icrowdsourcing.annotation_types.bbox.bbox
SingleBBox
p1212
(dp1213
g3
Nsg4
F0.9558638083228248
sg5
I1
sg6
F0.5
sg7
F9.865824782951855e-05
sg8
F0.45486897889081546
sg9
F0.6027742749054225
sg10
F0.6274905285615455
sg11
Nsba(icrowdsourcing.annotation_types.bbox.bbox
SingleBBox
p1214
(dp1215
g3
Nsg4
F0.2779827798277983
sg5
I7
sg6
F0.5
sg7
F0.0006906077348066298
sg8
F0.4264042640426404
sg9
F0.2373923739237392
sg10
F0.5882192155254886
sg11
Nsba(icrowdsourcing.annotation_types.bbox.bbox
SingleBBox
p1216
(dp1217
g3
Nsg4
F0.7539975399753998
sg5
I17
sg6
F0.5
sg7
F0.0016771902131018153
sg8
F0.5422987563208964
sg9
F0.6555965559655595
sg10
F0.7303539702063688
sg11
Nsba(icrowdsourcing.annotation_types.bbox.bbox
SingleBBox
p1218
(dp1219
g3
Nsg4
F0.7539975399753998
sg5
I1
sg6
F0.5
sg7
F9.865824782951855e-05
sg8
F0.5510455104551045
sg9
F0.6617466174661747
sg10
F0.6428864288642886
sg11
Nsba(icrowdsourcing.annotation_types.bbox.bbox
SingleBBox
p1220
(dp1221
g3
Nsg4
F0.7402269861286254
sg5
I1
sg6
F0.5
sg7
F9.865824782951855e-05
sg8
F0.5915090510937719
sg9
F0.6885245901639344
sg10
F0.6722152301606067
sg11
Nsba(icrowdsourcing.annotation_types.bbox.bbox
SingleBBox
p1222
(dp1223
g3
Nsg4
F0.7158671586715867
sg5
I45
sg6
F0.5
sg7
F0.004439621152328334
sg8
F0.3957906245729125
sg9
F0.6531365313653137
sg10
F0.7675276752767527
sg11
Nsba(icrowdsourcing.annotation_types.bbox.bbox
SingleBBox
p1224
(dp1225
g3
Nsg4
F0.6578403674661747
sg5
I1
sg6
F0.5
sg7
F9.865824782951855e-05
sg8
F0.7758900505671723
sg9
F0.6578403674661747
sg10
F0.7758900505671723
sg11
Nsba(icrowdsourcing.annotation_types.bbox.bbox
SingleBBox
p1226
(dp1227
g3
Nsg4
F0.5596555965559655
sg5
I1
sg6
F0.5
sg7
F9.865824782951855e-05
sg8
F0.43077764110974437
sg9
F0.5325953259532596
sg10
F0.5335520021866885
sg11
Nsba(icrowdsourcing.annotation_types.bbox.bbox
SingleBBox
p1228
(dp1229
g3
Nsg4
F0.943419434194342
sg5
I4
sg6
F0.5
sg7
F0.0003946329913180742
sg8
F0.45920459204592046
sg9
F0.9249692496924968
sg10
F0.5138718053847205
sg11
Nsba(icrowdsourcing.annotation_types.bbox.bbox
SingleBBox
p1230
(dp1231
g3
Nsg4
F0.93849938499385
sg5
I1
sg6
F0.5
sg7
F9.865824782951855e-05
sg8
F0.4657646576465764
sg9
F0.929889298892989
sg10
F0.4985649856498565
sg11
Nsba(icrowdsourcing.annotation_types.bbox.bbox
SingleBBox
p1232
(dp1233
g3
Nsg4
F0.5990159901599016
sg5
I6
sg6
F0.5
sg7
F0.0005919494869771113
sg8
F0.44171108377750445
sg9
F0.5719557195571957
sg10
F0.5269919365860326
sg11
Nsba(icrowdsourcing.annotation_types.bbox.bbox
SingleBBox
p1234
(dp1235
g3
Nsg4
F0.027060270602706014
sg5
I2
sg6
F0.5
sg7
F0.0001973164956590371
sg8
F0.4482711493781605
sg9
F0.012300123001229993
sg10
F0.5422987563208964
sg11
Nsba(icrowdsourcing.annotation_types.bbox.bbox
SingleBBox
p1236
(dp1237
g3
Nsg4
F0.12647505381303814
sg5
I1
sg6
F0.5
sg7
F9.865824782951855e-05
sg8
F0.6403153614869482
sg9
F0.12647505381303814
sg10
F0.6403153614869482
sg11
Nsba(icrowdsourcing.annotation_types.bbox.bbox
SingleBBox
p1238
(dp1239
g3
Nsg4
F0.1190949800123001
sg5
I1
sg6
F0.5
sg7
F9.865824782951855e-05
sg8
F0.5594078857455241
sg9
F0.1190949800123001
sg10
F0.5594078857455241
sg11
Nsba(icrowdsourcing.annotation_types.bbox.bbox
SingleBBox
p1240
(dp1241
g3
Nsg4
F0.9569495694956949
sg5
I1
sg6
F0.5
sg7
F9.865824782951855e-05
sg8
F0.48107147738144046
sg9
F0.9495694956949571
sg10
F0.5073117397840644
sg11
Nsba(icrowdsourcing.annotation_types.bbox.bbox
SingleBBox
p1242
(dp1243
g3
Nsg4
F0.5547355473554735
sg5
I1
sg6
F0.5
sg7
F9.865824782951855e-05
sg8
F0.47232472324723246
sg9
F0.5338253382533825
sg10
F0.5291786251195846
sg11
Nsba(icrowdsourcing.annotation_types.bbox.bbox
SingleBBox
p1244
(dp1245
g3
Nsg4
F0.20428015564202337
sg5
I1
sg6
F0.5
sg7
F9.865824782951855e-05
sg8
F0.456549935149157
sg9
F0.1517509727626459
sg10
F0.5153480328577604
sg11
Nsba(icrowdsourcing.annotation_types.bbox.bbox
SingleBBox
p1246
(dp1247
g3
Nsg4
F0.566147859922179
sg5
I1
sg6
F0.5
sg7
F9.865824782951855e-05
sg8
F0.45654993514915687
sg9
F0.519455252918288
sg10
F0.5361003026372676
sg11
Nsba(icrowdsourcing.annotation_types.bbox.bbox
SingleBBox
p1248
(dp1249
g3
Nsg4
F0.26511978591976676
sg5
I2
sg6
F0.5
sg7
F0.0001973164956590371
sg8
F0.4713240638573631
sg9
F0.015132408575031531
sg10
F0.7067170861356313
sg11
Nsba(icrowdsourcing.annotation_types.bbox.bbox
SingleBBox
p1250
(dp1251
g3
Nsg4
F0.8487084870848708
sg5
I3
sg6
F0.5
sg7
F0.00029597474348855567
sg8
F0.4176575099084324
sg9
F0.820418204182042
sg10
F0.5619789531228645
sg11
Nsba(icrowdsourcing.annotation_types.bbox.bbox
SingleBBox
p1252
(dp1253
g3
Nsg4
F0.16974169741697417
sg5
I4
sg6
F0.5
sg7
F0.0003946329913180742
sg8
F0.4635779691130245
sg9
F0.15375153751537515
sg10
F0.5204318709853766
sg11
Nsba(icrowdsourcing.annotation_types.bbox.bbox
SingleBBox
p1254
(dp1255
g3
Nsg4
F0.003690036900368986
sg5
I1
sg6
F0.5
sg7
F9.865824782951855e-05
sg8
F0.42859095257619245
sg9
F0.0
sg10
F0.5488588219215524
sg11
Nsba(icrowdsourcing.annotation_types.bbox.bbox
SingleBBox
p1256
(dp1257
g3
Nsg4
F0.012300123001229988
sg5
I9
sg6
F0.5
sg7
F0.000887924230465667
sg8
F0.4242175755090885
sg9
F0.0
sg10
F0.5335520021866885
sg11
Nsba(icrowdsourcing.annotation_types.bbox.bbox
SingleBBox
p1258
(dp1259
g3
Nsg4
F0.025463488529589805
sg5
I1
sg6
F0.5
sg7
F9.865824782951855e-05
sg8
F0.4368004367444931
sg9
F0.01809248115858244
sg10
F0.495768495712552
sg11
Nsba(icrowdsourcing.annotation_types.bbox.bbox
SingleBBox
p1260
(dp1261
g3
Nsg4
F0.014406977473078753
sg5
I1
sg6
F0.5
sg7
F9.865824782951855e-05
sg8
F0.4149604149044713
sg9
F0.0
sg10
F0.4739284738725302
sg11
Nsba(icrowdsourcing.annotation_types.bbox.bbox
SingleBBox
p1262
(dp1263
g3
Nsg4
F0.18573185731857317
sg5
I66
sg6
F0.5
sg7
F0.006511444356748224
sg8
F0.4220308869755365
sg9
F0.13161131611316113
sg10
F0.6713133798004647
sg11
Nsba(icrowdsourcing.annotation_types.bbox.bbox
SingleBBox
p1264
(dp1265
g3
Nsg4
F0.21595859527587885
sg5
I1
sg6
F0.5
sg7
F9.865824782951855e-05
sg8
F0.38779956427015255
sg9
F0.12527232076607492
sg10
F0.6056644880174292
sg11
Nsba(icrowdsourcing.annotation_types.bbox.bbox
SingleBBox
p1266
(dp1267
g3
Nsg4
F0.024782124687643577
sg5
I1
sg6
F0.5
sg7
F9.865824782951855e-05
sg8
F0.4248366013071897
sg9
F0.01620369331509456
sg10
F0.6252723311546842
sg11
Nsba(icrowdsourcing.annotation_types.bbox.bbox
SingleBBox
p1268
(dp1269
g3
Nsg4
F0.03567035670356702
sg5
I6
sg6
F0.5
sg7
F0.0005919494869771113
sg8
F0.42421757550908845
sg9
F0.007380073800737988
sg10
F0.5226185595189285
sg11
Nsba(icrowdsourcing.annotation_types.bbox.bbox
SingleBBox
p1270
(dp1271
g3
Nsg4
F0.33210332103321033
sg5
I10
sg6
F0.5
sg7
F0.0009865824782951855
sg8
F0.43733770671040045
sg9
F0.3013530135301353
sg10
F0.5838458384583846
sg11
Nsba(icrowdsourcing.annotation_types.bbox.bbox
SingleBBox
p1272
(dp1273
g3
Nsg4
F0.5535055350553505
sg5
I13
sg6
F0.5
sg7
F0.001282557221783741
sg8
F0.4264042640426404
sg9
F0.5092250922509225
sg10
F0.5488588219215524
sg11
Nsba(icrowdsourcing.annotation_types.bbox.bbox
SingleBBox
p1274
(dp1275
g3
Nsg4
F0.4268142681426815
sg5
I4
sg6
F0.5
sg7
F0.0003946329913180742
sg8
F0.4592045920459204
sg9
F0.3751537515375153
sg10
F0.5882192155254886
sg11
Nsba(icrowdsourcing.annotation_types.bbox.bbox
SingleBBox
p1276
(dp1277
g3
Nsg4
F0.41451414514145146
sg5
I5
sg6
F0.5
sg7
F0.0004932912391475928
sg8
F0.4701380347136805
sg9
F0.3825338253382534
sg10
F0.6100861008610087
sg11
Nsba(icrowdsourcing.annotation_types.bbox.bbox
SingleBBox
p1278
(dp1279
g3
Nsg4
F0.1044389874327416
sg5
I11
sg6
F0.5
sg7
F0.001085240726124704
sg8
F0.36383442265795213
sg9
F0.04806643841313378
sg10
F0.6318082788671026
sg11
Nsba(icrowdsourcing.annotation_types.bbox.bbox
SingleBBox
p1280
(dp1281
g3
Nsg4
F0.99921875
sg5
I2
sg6
F0.5
sg7
F0.0001973164956590371
sg8
F0.5947792811261446
sg9
F0.9901599015990158
sg10
F0.7303539702063688
sg11
Nsba(icrowdsourcing.annotation_types.bbox.bbox
SingleBBox
p1282
(dp1283
g3
Nsg4
F0.08610086100861007
sg5
I1
sg6
F0.5
sg7
F9.865824782951855e-05
sg8
F0.46139128057947243
sg9
F0.03936039360393602
sg10
F0.5204318709853766
sg11
Nsba(icrowdsourcing.annotation_types.bbox.bbox
SingleBBox
p1284
(dp1285
g3
Nsg4
F0.27060270602706027
sg5
I1
sg6
F0.5
sg7
F9.865824782951855e-05
sg8
F0.46795134618012846
sg9
F0.23985239852398524
sg10
F0.5291786251195846
sg11
Nsba(icrowdsourcing.annotation_types.bbox.bbox
SingleBBox
p1286
(dp1287
g3
Nsg4
F0.056580565805658026
sg5
I2
sg6
F0.5
sg7
F0.0001973164956590371
sg8
F0.46795134618012846
sg9
F0.045510455104551026
sg10
F0.5138718053847205
sg11
Nsba(icrowdsourcing.annotation_types.bbox.bbox
SingleBBox
p1288
(dp1289
g3
Nsg4
F0.09963099630996308
sg5
I3
sg6
F0.5
sg7
F0.00029597474348855567
sg8
F0.46795134618012846
sg9
F0.08487084870848707
sg10
F0.5160584939182725
sg11
Nsba(icrowdsourcing.annotation_types.bbox.bbox
SingleBBox
p1290
(dp1291
g3
Nsg4
F0.2349323493234933
sg5
I2
sg6
F0.5
sg7
F0.0001973164956590371
sg8
F0.4373377067104005
sg9
F0.19065190651906516
sg10
F0.5313653136531366
sg11
Nsba(icrowdsourcing.annotation_types.bbox.bbox
SingleBBox
p1292
(dp1293
g3
Nsg4
F0.10701107011070107
sg5
I1
sg6
F0.5
sg7
F9.865824782951855e-05
sg8
F0.4438977723110564
sg9
F0.08241082410824105
sg10
F0.5204318709853765
sg11
Nsba(icrowdsourcing.annotation_types.bbox.bbox
SingleBBox
p1294
(dp1295
g3
Nsg4
F0.07380073800738005
sg5
I7
sg6
F0.5
sg7
F0.0006906077348066298
sg8
F0.4264042640426404
sg9
F0.04182041820418203
sg10
F0.5576055760557607
sg11
Nsba(icrowdsourcing.annotation_types.bbox.bbox
SingleBBox
p1296
(dp1297
g3
Nsg4
F0.08610086100861007
sg5
I2
sg6
F0.5
sg7
F0.0001973164956590371
sg8
F0.43733770671040045
sg9
F0.07503075030750306
sg10
F0.5269919365860325
sg11
Nsba(icrowdsourcing.annotation_types.bbox.bbox
SingleBBox
p1298
(dp1299
g3
Nsg4
F0.06519065190651904
sg5
I1
sg6
F0.5
sg7
F9.865824782951855e-05
sg8
F0.43733770671040034
sg9
F0.05166051660516602
sg10
F0.5379253792537925
sg11
Nsba(icrowdsourcing.annotation_types.bbox.bbox
SingleBBox
p1300
(dp1301
g3
Nsg4
F0.9581795817958179
sg5
I60
sg6
F0.5
sg7
F0.005919494869771113
sg8
F0.4198441984419844
sg9
F0.8966789667896679
sg10
F0.8659286592865928
sg11
Nsba(icrowdsourcing.annotation_types.bbox.bbox
SingleBBox
p1302
(dp1303
g3
Nsg4
F0.023370233702337005
sg5
I1
sg6
F0.5
sg7
F9.865824782951855e-05
sg8
F0.7719010523438569
sg9
F0.0
sg10
F0.8003280032800328
sg11
Nsba(icrowdsourcing.annotation_types.bbox.bbox
SingleBBox
p1304
(dp1305
g3
Nsg4
F0.4013848644509655
sg5
I1
sg6
F0.5
sg7
F9.865824782951855e-05
sg8
F0.46300846300846293
sg9
F0.36207282513892614
sg10
F0.5634725634725635
sg11
Nsba(icrowdsourcing.annotation_types.bbox.bbox
SingleBBox
p1306
(dp1307
g3
Nsg4
F0.13284132841328414
sg5
I29
sg6
F0.5
sg7
F0.002861089187056038
sg8
F0.4264042640426404
sg9
F0.020910209102091005
sg10
F0.6844335110017769
sg11
Nsba(icrowdsourcing.annotation_types.bbox.bbox
SingleBBox
p1308
(dp1309
g3
Nsg4
F0.42189421894218937
sg5
I1
sg6
F0.5
sg7
F9.865824782951855e-05
sg8
F0.4307776411097444
sg9
F0.4157441574415744
sg10
F0.4526445264452645
sg11
Nsba(icrowdsourcing.annotation_types.bbox.bbox
SingleBBox
p1310
(dp1311
g3
Nsg4
F0.982779827798278
sg5
I3
sg6
F0.5
sg7
F0.00029597474348855567
sg8
F0.4876315429820965
sg9
F0.968019680196802
sg10
F0.5422987563208965
sg11
Nsba(icrowdsourcing.annotation_types.bbox.bbox
SingleBBox
p1312
(dp1313
g3
Nsg4
F0.03321033210332103
sg5
I1
sg6
F0.5
sg7
F9.865824782951855e-05
sg8
F0.5051250512505125
sg9
F0.027060270602706014
sg10
F0.5422987563208964
sg11
Nsba(icrowdsourcing.annotation_types.bbox.bbox
SingleBBox
p1314
(dp1315
g3
Nsg4
F0.024600246002460007
sg5
I1
sg6
F0.5
sg7
F9.865824782951855e-05
sg8
F0.5073117397840645
sg9
F0.014760147601475992
sg10
F0.5422987563208965
sg11
Nsba(icrowdsourcing.annotation_types.bbox.bbox
SingleBBox
p1316
(dp1317
g3
Nsg4
F0.019680196801968003
sg5
I1
sg6
F0.5
sg7
F9.865824782951855e-05
sg8
F0.5182451824518245
sg9
F0.01230012300122999
sg10
F0.5401120677873446
sg11
Nsba(icrowdsourcing.annotation_types.bbox.bbox
SingleBBox
p1318
(dp1319
g3
Nsg4
F0.028290282902829
sg5
I1
sg6
F0.5
sg7
F9.865824782951855e-05
sg8
F0.5138718053847205
sg9
F0.022140221402214007
sg10
F0.5401120677873446
sg11
Nsba(icrowdsourcing.annotation_types.bbox.bbox
SingleBBox
p1320
(dp1321
g3
Nsg4
F0.06642066420664205
sg5
I2
sg6
F0.5
sg7
F0.0001973164956590371
sg8
F0.4788847888478885
sg9
F0.04674046740467404
sg10
F0.5707257072570726
sg11
Nsba(icrowdsourcing.annotation_types.bbox.bbox
SingleBBox
p1322
(dp1323
g3
Nsg4
F0.985239852398524
sg5
I1
sg6
F0.5
sg7
F9.865824782951855e-05
sg8
F0.4985649856498565
sg9
F0.9729397293972941
sg10
F0.5357386907202405
sg11
Nsba(icrowdsourcing.annotation_types.bbox.bbox
SingleBBox
p1324
(dp1325
g3
Nsg4
F0.037881454333080475
sg5
I1
sg6
F0.5
sg7
F9.865824782951855e-05
sg8
F0.5040325107603861
sg9
F0.03240857118315534
sg10
F0.5605492353339113
sg11
Nsba(icrowdsourcing.annotation_types.bbox.bbox
SingleBBox
p1326
(dp1327
g3
Nsg4
F0.020340466108478485
sg5
I1
sg6
F0.5
sg7
F9.865824782951855e-05
sg8
F0.5020820881716759
sg9
F0.011563679910397617
sg10
F0.5566484243642287
sg11
Nsba(icrowdsourcing.annotation_types.bbox.bbox
SingleBBox
p1328
(dp1329
g3
Nsg4
F0.03131147771885837
sg5
I2
sg6
F0.5
sg7
F0.0001973164956590371
sg8
F0.47087570303742815
sg9
F0.01814627917988454
sg10
F0.5839539985287936
sg11
Nsba(icrowdsourcing.annotation_types.bbox.bbox
SingleBBox
p1330
(dp1331
g3
Nsg4
F0.930868893934995
sg5
I1
sg6
F0.5
sg7
F9.865824782951855e-05
sg8
F0.47174447168852807
sg9
F0.9112128742789753
sg10
F0.5416325415765979
sg11
Nsba(icrowdsourcing.annotation_types.bbox.bbox
SingleBBox
p1332
(dp1333
g3
Nsg4
F0.9434194341943419
sg5
I1
sg6
F0.5
sg7
F9.865824782951855e-05
sg8
F0.4766981003143365
sg9
F0.91389913899139
sg10
F0.5422987563208964
sg11
Nsba(icrowdsourcing.annotation_types.bbox.bbox
SingleBBox
p1334
(dp1335
g3
Nsg4
F0.02214022140221401
sg5
I2
sg6
F0.5
sg7
F0.0001973164956590371
sg8
F0.4963782971163045
sg9
F0.0
sg10
F0.5641656416564165
sg11
Nsba(icrowdsourcing.annotation_types.bbox.bbox
SingleBBox
p1336
(dp1337
g3
Nsg4
F0.6568265682656826
sg5
I4
sg6
F0.5
sg7
F0.0003946329913180742
sg8
F0.43077764110974454
sg9
F0.6248462484624846
sg10
F0.5248052480524805
sg11
Nsba(icrowdsourcing.annotation_types.bbox.bbox
SingleBBox
p1338
(dp1339
g3
Nsg4
F0.5756457564575646
sg5
I1
sg6
F0.5
sg7
F9.865824782951855e-05
sg8
F0.4482711493781605
sg9
F0.5473554735547355
sg10
F0.5554188875222085
sg11
Nsba(icrowdsourcing.annotation_types.bbox.bbox
SingleBBox
p1340
(dp1341
g3
Nsg4
F0.5793357933579336
sg5
I1
sg6
F0.5
sg7
F9.865824782951855e-05
sg8
F0.46139128057947243
sg9
F0.5535055350553505
sg10
F0.5248052480524805
sg11
Nsba(icrowdsourcing.annotation_types.bbox.bbox
SingleBBox
p1342
(dp1343
g3
Nsg4
F0.5129151291512916
sg5
I6
sg6
F0.5
sg7
F0.0005919494869771113
sg8
F0.5925925925925927
sg9
F0.40344403444034443
sg10
F0.7981413147464808
sg11
Nsba(icrowdsourcing.annotation_types.bbox.bbox
SingleBBox
p1344
(dp1345
g3
Nsg4
F0.5435056746532156
sg5
I2
sg6
F0.5
sg7
F0.0001973164956590371
sg8
F0.6035925239946756
sg9
F0.5081967213114753
sg10
F0.7201681159801038
sg11
Nsba(icrowdsourcing.annotation_types.bbox.bbox
SingleBBox
p1346
(dp1347
g3
Nsg4
F0.4782134972366632
sg5
I1
sg6
F0.5
sg7
F9.865824782951855e-05
sg8
F0.5620915032679739
sg9
F0.40100761488372205
sg10
F0.727668845315904
sg11
Nsba(icrowdsourcing.annotation_types.bbox.bbox
SingleBBox
p1348
(dp1349
g3
Nsg4
F0.95079950799508
sg5
I9
sg6
F0.5
sg7
F0.000887924230465667
sg8
F0.46139128057947243
sg9
F0.9200492004920047
sg10
F0.5794724613912805
sg11
Nsba(icrowdsourcing.annotation_types.bbox.bbox
SingleBBox
p1350
(dp1351
g3
Nsg4
F0.5018450184501845
sg5
I1
sg6
F0.5
sg7
F9.865824782951855e-05
sg8
F0.4504578379117125
sg9
F0.48339483394833954
sg10
F0.5029383627169605
sg11
Nsba(icrowdsourcing.annotation_types.bbox.bbox
SingleBBox
p1352
(dp1353
g3
Nsg4
F0.49692496924969254
sg5
I1
sg6
F0.5
sg7
F9.865824782951855e-05
sg8
F0.47888478884788854
sg9
F0.48585485854858546
sg10
F0.5051250512505125
sg11
Nsba(icrowdsourcing.annotation_types.bbox.bbox
SingleBBox
p1354
(dp1355
g3
Nsg4
F0.4883148831488315
sg5
I1
sg6
F0.5
sg7
F9.865824782951855e-05
sg8
F0.4788847888478885
sg9
F0.47478474784747837
sg10
F0.5073117397840645
sg11
Nsba(icrowdsourcing.annotation_types.bbox.bbox
SingleBBox
p1356
(dp1357
g3
Nsg4
F0.9926199261992619
sg5
I1
sg6
F0.5
sg7
F9.865824782951855e-05
sg8
F0.5357386907202406
sg9
F0.9889298892988929
sg10
F0.6866201995353287
sg11
Nsba(icrowdsourcing.annotation_types.bbox.bbox
SingleBBox
p1358
(dp1359
g3
Nsg4
F0.8954489544895449
sg5
I1
sg6
F0.5
sg7
F9.865824782951855e-05
sg8
F0.4482711493781605
sg9
F0.8683886838868389
sg10
F0.5707257072570725
sg11
Nsba(icrowdsourcing.annotation_types.bbox.bbox
SingleBBox
p1360
(dp1361
g3
Nsg4
F0.09225092250922506
sg5
I4
sg6
F0.5
sg7
F0.0003946329913180742
sg8
F0.4635779691130245
sg9
F0.07749077490774905
sg10
F0.5073117397840646
sg11
Nsba(icrowdsourcing.annotation_types.bbox.bbox
SingleBBox
p1362
(dp1363
g3
Nsg4
F0.08733087330873306
sg5
I2
sg6
F0.5
sg7
F0.0001973164956590371
sg8
F0.4701380347136805
sg9
F0.08118081180811805
sg10
F0.5116851168511686
sg11
Nsba(icrowdsourcing.annotation_types.bbox.bbox
SingleBBox
p1364
(dp1365
g3
Nsg4
F0.4920049200492005
sg5
I7
sg6
F0.5
sg7
F0.0006906077348066298
sg8
F0.39141724750580836
sg9
F0.4464944649446495
sg10
F0.5269919365860324
sg11
Nsba(icrowdsourcing.annotation_types.bbox.bbox
SingleBBox
p1366
(dp1367
g3
Nsg4
F0.5436654366543665
sg5
I7
sg6
F0.5
sg7
F0.0006906077348066298
sg8
F0.37829711630449636
sg9
F0.5018450184501845
sg10
F0.5619789531228646
sg11
Nsba(icrowdsourcing.annotation_types.bbox.bbox
SingleBBox
p1368
(dp1369
g3
Nsg4
F0.044136191677175286
sg5
I3
sg6
F0.5
sg7
F0.00029597474348855567
sg8
F0.45027320351907313
sg9
F0.011349306431273642
sg10
F0.5646069571970891
sg11
Nsba(icrowdsourcing.annotation_types.bbox.bbox
SingleBBox
p1370
(dp1371
g3
Nsg4
F0.2041820418204182
sg5
I5
sg6
F0.5
sg7
F0.0004932912391475928
sg8
F0.4438977723110564
sg9
F0.16974169741697417
sg10
F0.5904059040590406
sg11
Nsba(icrowdsourcing.annotation_types.bbox.bbox
SingleBBox
p1372
(dp1373
g3
Nsg4
F0.38007380073800745
sg5
I1
sg6
F0.5
sg7
F9.865824782951855e-05
sg8
F0.46139128057947243
sg9
F0.36408364083640843
sg10
F0.5248052480524805
sg11
Nsba(icrowdsourcing.annotation_types.bbox.bbox
SingleBBox
p1374
(dp1375
g3
Nsg4
F0.6309963099630996
sg5
I2
sg6
F0.5
sg7
F0.0001973164956590371
sg8
F0.4351510181768485
sg9
F0.5990159901599016
sg10
F0.5488588219215527
sg11
Nsba(icrowdsourcing.annotation_types.bbox.bbox
SingleBBox
p1376
(dp1377
g3
Nsg4
F0.6273062730627307
sg5
I1
sg6
F0.5
sg7
F9.865824782951855e-05
sg8
F0.4264042640426404
sg9
F0.6088560885608856
sg10
F0.5313653136531366
sg11
Nsba(icrowdsourcing.annotation_types.bbox.bbox
SingleBBox
p1378
(dp1379
g3
Nsg4
F0.17835178351783515
sg5
I10
sg6
F0.5
sg7
F0.0009865824782951855
sg8
F0.49200492004920043
sg9
F0.11193111931119311
sg10
F0.6253929205958726
sg11
Nsba(icrowdsourcing.annotation_types.bbox.bbox
SingleBBox
p1380
(dp1381
g3
Nsg4
F0.991389913899139
sg5
I1
sg6
F0.5
sg7
F9.865824782951855e-05
sg8
F0.46139128057947243
sg9
F0.9717097170971712
sg10
F0.5357386907202406
sg11
Nsba(icrowdsourcing.annotation_types.bbox.bbox
SingleBBox
p1382
(dp1383
g3
Nsg4
F0.9475762423347025
sg5
I1
sg6
F0.5
sg7
F9.865824782951855e-05
sg8
F0.42265795206971685
sg9
F0.9255174188052908
sg10
F0.7777777777777778
sg11
Nsba(icrowdsourcing.annotation_types.bbox.bbox
SingleBBox
p1384
(dp1385
g3
Nsg4
F0.970479704797048
sg5
I1
sg6
F0.5
sg7
F9.865824782951855e-05
sg8
F0.46795134618012846
sg9
F0.961869618696187
sg10
F0.5051250512505125
sg11
Nsba(icrowdsourcing.annotation_types.bbox.bbox
SingleBBox
p1386
(dp1387
g3
Nsg4
F0.8757687576875769
sg5
I3
sg6
F0.5
sg7
F0.00029597474348855567
sg8
F0.4701380347136805
sg9
F0.8265682656826568
sg10
F0.5860325269919365
sg11
Nsba(icrowdsourcing.annotation_types.bbox.bbox
SingleBBox
p1388
(dp1389
g3
Nsg4
F0.8597785977859779
sg5
I3
sg6
F0.5
sg7
F0.00029597474348855567
sg8
F0.4701380347136805
sg9
F0.8339483394833949
sg10
F0.5947792811261446
sg11
Nsba(icrowdsourcing.annotation_types.bbox.bbox
SingleBBox
p1390
(dp1391
g3
Nsg4
F0.6383763837638378
sg5
I11
sg6
F0.5
sg7
F0.001085240726124704
sg8
F0.4220308869755365
sg9
F0.5658056580565807
sg10
F0.6078994123274566
sg11
Nsba(icrowdsourcing.annotation_types.bbox.bbox
SingleBBox
p1392
(dp1393
g3
Nsg4
F0.9370114000775012
sg5
I12
sg6
F0.5
sg7
F0.0011838989739542227
sg8
F0.47829647829647826
sg9
F0.8841858472519484
sg10
F0.6573846573846572
sg11
Nsba(icrowdsourcing.annotation_types.bbox.bbox
SingleBBox
p1394
(dp1395
g3
Nsg4
F0.99921875
sg5
I8
sg6
F0.5
sg7
F0.0007892659826361484
sg8
F0.5007516741834084
sg9
F0.9889298892988929
sg10
F0.7719010523438569
sg11
Nsba(icrowdsourcing.annotation_types.bbox.bbox
SingleBBox
p1396
(dp1397
g3
Nsg4
F0.46350761488372205
sg5
I8
sg6
F0.5
sg7
F0.0007892659826361484
sg8
F0.32897603485838783
sg9
F0.3287036933150945
sg10
F0.747276688453159
sg11
Nsba(icrowdsourcing.annotation_types.bbox.bbox
SingleBBox
p1398
(dp1399
g3
Nsg4
F0.11193111931119307
sg5
I1
sg6
F0.5
sg7
F9.865824782951855e-05
sg8
F0.6931802651359847
sg9
F0.1094710947109471
sg10
F0.7019270192701926
sg11
Nsba(icrowdsourcing.annotation_types.bbox.bbox
SingleBBox
p1400
(dp1401
g3
Nsg4
F0.8068880688806889
sg5
I1
sg6
F0.5
sg7
F9.865824782951855e-05
sg8
F0.5772857728577285
sg9
F0.7035670356703567
sg10
F0.8331283312833129
sg11
Nsba(icrowdsourcing.annotation_types.bbox.bbox
SingleBBox
p1402
(dp1403
g3
Nsg4
F0.8081180811808117
sg5
I2
sg6
F0.5
sg7
F0.0001973164956590371
sg8
F0.6013393467268006
sg9
F0.7404674046740467
sg10
F0.7784611179445128
sg11
Nsba(icrowdsourcing.annotation_types.bbox.bbox
SingleBBox
p1404
(dp1405
g3
Nsg4
F0.03444034440344401
sg5
I1
sg6
F0.5
sg7
F9.865824782951855e-05
sg8
F0.5422987563208966
sg9
F0.015990159901599
sg10
F0.6494464944649446
sg11
Nsba(icrowdsourcing.annotation_types.bbox.bbox
SingleBBox
p1406
(dp1407
g3
Nsg4
F0.8595623846863468
sg5
I1
sg6
F0.5
sg7
F9.865824782951855e-05
sg8
F0.46756696733634
sg9
F0.8595623846863468
sg10
F0.46756696733634
sg11
Nsba(icrowdsourcing.annotation_types.bbox.bbox
SingleBBox
p1408
(dp1409
g3
Nsg4
F0.8139978109621534
sg5
I7
sg6
F0.5
sg7
F0.0006906077348066298
sg8
F0.3442265795206972
sg9
F0.6730664384131337
sg10
F0.8061002178649237
sg11
Nsba(icrowdsourcing.annotation_types.bbox.bbox
SingleBBox
p1410
(dp1411
g3
Nsg4
F0.3382533825338253
sg5
I1
sg6
F0.5
sg7
F9.865824782951855e-05
sg8
F0.4482711493781605
sg9
F0.3111931119311193
sg10
F0.5335520021866885
sg11
Nsba(icrowdsourcing.annotation_types.bbox.bbox
SingleBBox
p1412
(dp1413
g3
Nsg4
F0.33381729688339784
sg5
I1
sg6
F0.5
sg7
F9.865824782951855e-05
sg8
F0.45645645645645644
sg9
F0.3190752821413831
sg10
F0.5263445263445263
sg11
Nsba(icrowdsourcing.annotation_types.bbox.bbox
SingleBBox
p1414
(dp1415
g3
Nsg4
F0.9063028520910208
sg5
I1
sg6
F0.5
sg7
F9.865824782951855e-05
sg8
F0.7124760830941642
sg9
F0.9063028520910208
sg10
F0.7124760830941642
sg11
Nsba(icrowdsourcing.annotation_types.bbox.bbox
SingleBBox
p1416
(dp1417
g3
Nsg4
F0.6741121371782383
sg5
I6
sg6
F0.5
sg7
F0.0005919494869771113
sg8
F0.43898443892849526
sg9
F0.6397141027802038
sg10
F0.7076167075607639
sg11
Nsba(icrowdsourcing.annotation_types.bbox.bbox
SingleBBox
p1418
(dp1419
g3
Nsg4
F0.7527233011582318
sg5
I3
sg6
F0.5
sg7
F0.00029597474348855567
sg8
F0.3071895424836602
sg9
F0.5566448697856827
sg10
F0.832244008714597
sg11
Nsba(icrowdsourcing.annotation_types.bbox.bbox
SingleBBox
p1420
(dp1421
g3
Nsg4
F0.1398612908727735
sg5
I1
sg6
F0.5
sg7
F9.865824782951855e-05
sg8
F0.4591957446121445
sg9
F0.12232030264817154
sg10
F0.509883710111041
sg11
Nsba(icrowdsourcing.annotation_types.bbox.bbox
SingleBBox
p1422
(dp1423
g3
Nsg4
F0.8868388683886839
sg5
I6
sg6
F0.5
sg7
F0.0005919494869771113
sg8
F0.5794724613912805
sg9
F0.8142681426814267
sg10
F0.7325406587399207
sg11
Nsba(icrowdsourcing.annotation_types.bbox.bbox
SingleBBox
p1424
(dp1425
g3
Nsg4
F0.9117276166456495
sg5
I1
sg6
F0.5
sg7
F9.865824782951855e-05
sg8
F0.585657817535379
sg9
F0.8814627994955864
sg10
F0.6551548050651534
sg11
Nsba(icrowdsourcing.annotation_types.bbox.bbox
SingleBBox
p1426
(dp1427
g3
Nsg4
F0.964113430196802
sg5
I1
sg6
F0.5
sg7
F9.865824782951855e-05
sg8
F0.7255962142954763
sg9
F0.964113430196802
sg10
F0.7255962142954763
sg11
Nsba(icrowdsourcing.annotation_types.bbox.bbox
SingleBBox
p1428
(dp1429
g3
Nsg4
F0.8912036933150947
sg5
I1
sg6
F0.5
sg7
F9.865824782951855e-05
sg8
F0.5185185185185186
sg9
F0.8568899678248986
sg10
F0.7843137254901962
sg11
Nsba(icrowdsourcing.annotation_types.bbox.bbox
SingleBBox
p1430
(dp1431
g3
Nsg4
F0.91389913899139
sg5
I1
sg6
F0.5
sg7
F9.865824782951855e-05
sg8
F0.6100861008610087
sg9
F0.8646986469864698
sg10
F0.7150471504715047
sg11
Nsba(icrowdsourcing.annotation_types.bbox.bbox
SingleBBox
p1432
(dp1433
g3
Nsg4
F0.6605166051660516
sg5
I1
sg6
F0.5
sg7
F9.865824782951855e-05
sg8
F0.4592045920459204
sg9
F0.6457564575645757
sg10
F0.5313653136531366
sg11
Nsba(icrowdsourcing.annotation_types.bbox.bbox
SingleBBox
p1434
(dp1435
g3
Nsg4
F0.2041820418204182
sg5
I17
sg6
F0.5
sg7
F0.0016771902131018153
sg8
F0.48981823151564846
sg9
F0.1549815498154981
sg10
F0.7631542982096488
sg11
Nsba(icrowdsourcing.annotation_types.bbox.bbox
SingleBBox
p1436
(dp1437
g3
Nsg4
F0.9889298892988929
sg5
I1
sg6
F0.5
sg7
F9.865824782951855e-05
sg8
F0.3979773131064644
sg9
F0.932349323493235
sg10
F0.5685390187235206
sg11
Nsba(icrowdsourcing.annotation_types.bbox.bbox
SingleBBox
p1438
(dp1439
g3
Nsg4
F0.2029520295202952
sg5
I1
sg6
F0.5
sg7
F9.865824782951855e-05
sg8
F0.45045783791171234
sg9
F0.16974169741697417
sg10
F0.8200082000820008
sg11
Nsba(icrowdsourcing.annotation_types.bbox.bbox
SingleBBox
p1440
(dp1441
g3
Nsg4
F0.7509727626459144
sg5
I1
sg6
F0.5
sg7
F9.865824782951855e-05
sg8
F0.42888024210981407
sg9
F0.6964980544747081
sg10
F0.5049718979680069
sg11
Nsba(icrowdsourcing.annotation_types.bbox.bbox
SingleBBox
p1442
(dp1443
g3
Nsg4
F0.42694805194805197
sg5
I19
sg6
F0.5
sg7
F0.0018745067087608525
sg8
F0.4357864357864358
sg9
F0.3295454545454546
sg10
F0.9696969696969698
sg11
Nsba(icrowdsourcing.annotation_types.bbox.bbox
SingleBBox
p1444
(dp1445
g3
Nsg4
F0.43766816574415746
sg5
I1
sg6
F0.5
sg7
F9.865824782951855e-05
sg8
F0.8677309689763564
sg9
F0.43766816574415746
sg10
F0.8677309689763564
sg11
Nsba(icrowdsourcing.annotation_types.bbox.bbox
SingleBBox
p1446
(dp1447
g3
Nsg4
F0.0049200492004919825
sg5
I1
sg6
F0.5
sg7
F9.865824782951855e-05
sg8
F0.4264042640426404
sg9
F0.0049200492004919825
sg10
F0.4264042640426404
sg11
Nsba(icrowdsourcing.annotation_types.bbox.bbox
SingleBBox
p1448
(dp1449
g3
Nsg4
F0.01230012300122999
sg5
I1
sg6
F0.5
sg7
F9.865824782951855e-05
sg8
F0.5138718053847205
sg9
F0.0
sg10
F0.5204318709853765
sg11
Nsba(icrowdsourcing.annotation_types.bbox.bbox
SingleBBox
p1450
(dp1451
g3
Nsg4
F0.6519991150652162
sg5
I1
sg6
F0.5
sg7
F9.865824782951855e-05
sg8
F0.5001365001365002
sg9
F0.613915576981678
sg10
F0.7862407862407862
sg11
Nsba(icrowdsourcing.annotation_types.bbox.bbox
SingleBBox
p1452
(dp1453
g3
Nsg4
F0.6301742815503887
sg5
I1
sg6
F0.5
sg7
F9.865824782951855e-05
sg8
F0.42919389978213507
sg9
F0.6191448697856828
sg10
F0.7625272331154684
sg11
Nsba(icrowdsourcing.annotation_types.bbox.bbox
SingleBBox
p1454
(dp1455
g3
Nsg4
F0.6988017325307808
sg5
I1
sg6
F0.5
sg7
F9.865824782951855e-05
sg8
F0.4858387799564271
sg9
F0.6657134972366631
sg10
F0.7320261437908496
sg11
Nsba(icrowdsourcing.annotation_types.bbox.bbox
SingleBBox
p1456
(dp1457
g3
Nsg4
F0.13507624233470236
sg5
I1
sg6
F0.5
sg7
F9.865824782951855e-05
sg8
F0.3660130718954248
sg9
F0.07380173253078083
sg10
F0.8431372549019607
sg11
Nsba(icrowdsourcing.annotation_types.bbox.bbox
SingleBBox
p1458
(dp1459
g3
Nsg4
F0.10578105781057807
sg5
I3
sg6
F0.5
sg7
F0.00029597474348855567
sg8
F0.48107147738144046
sg9
F0.08733087330873306
sg10
F0.6560065600656007
sg11
Nsba(icrowdsourcing.annotation_types.bbox.bbox
SingleBBox
p1460
(dp1461
g3
Nsg4
F0.050430504305043033
sg5
I3
sg6
F0.5
sg7
F0.00029597474348855567
sg8
F0.47888478884788854
sg9
F0.030750307503075013
sg10
F0.5904059040590407
sg11
Nsba.